(dp1
S'output'
p2
S''
sS'layer'
p3
S'/home/diazluis2007/web2py/applications/scec/models/1_tabla_perfil.py'
p4
sS'code'
p5
S"# -*- coding: utf-8 -*-\n\n\n\n\ndb.define_table('perfil',\n    Field('di', 'integer'),\n    Field('nombre', 'string', length=64),\n    Field('apellido', 'string', length=64),\n    Field('fecha_nac', 'date'),\n    Field('nac', db.pais),\n    Field('estado_civil', 'string', length=1),\n    Field('sexo', 'string', length=1),\n    Field('estado', db.estado),\n    Field('direccion', 'string', length=512),\n    Field('tlf_fijo', 'string', length=64 ),\n    Field('tlf_movil', 'string', length=64),\n    Field('tipo', 'string', length=1, default='b'  writable=False),\n    Field('fecha_reg', 'date'),\n    Field('user', db.auth_user, default=id_user, writable=False, readable=False),\n)\n\n\n\ndb.perfil.di.requires = IS_INT_IN_RANGE(999999, 30000000)\ndb.perfil.nombre.requires = db.perfil.apellido.requires = [\n    IS_LENGTH(minsize=3),\n    IS_NOT_EMPTY()\n]\n\n\ndb.perfil.nac.label = 'Nacionalidad'\ndb.perfil.nac.requires = IS_IN_DB(db, 'pais.id', '%(nombre)s', zero='Seleccione el Pais')\n\n\ndb.perfil.estado_civil.requires = IS_IN_SET(_estado_civil, zero='Seleccione el estado Civil')\n\n\ndb.perfil.sexo.requires = IS_IN_SET(_sexo, zero='Seleccione el Sexo')\n\n\ndb.perfil.estado.requires = IS_IN_DB(db, 'estado.nombre', zero=None)\n\n\ndb.perfil.direccion.requires = IS_NOT_EMPTY()\ndb.perfil.direccion.widget = SQLFORM.widgets.text.widget\n\n\ndb.perfil.tlf_fijo.comment = db.perfil.tlf_movil.comment = 'Debe incluir el Codigo'\ndb.perfil.tlf_fijo.requires = db.perfil.tlf_movil.requires = [\n    IS_LENGTH(minsize=10),\n    IS_NOT_EMPTY()\n]\n\n"
p6
sS'snapshot'
p7
(dp8
S'exception'
p9
(dp10
S'__getslice__'
p11
S"<method-wrapper '__getslice__' of exceptions.SyntaxError object>"
p12
sS'text'
p13
S'"    Field(\'tipo\', \'string\', length=1, default=\'b\'  writable=False),\\n"'
p14
sS'__str__'
p15
S"<method-wrapper '__str__' of exceptions.SyntaxError object>"
p16
sS'__reduce__'
p17
S'<built-in method __reduce__ of exceptions.SyntaxError object>'
p18
sS'__dict__'
p19
S'{}'
p20
sS'__sizeof__'
p21
S'<built-in method __sizeof__ of exceptions.SyntaxError object>'
p22
sS'__init__'
p23
S"<method-wrapper '__init__' of exceptions.SyntaxError object>"
p24
sS'__setattr__'
p25
S"<method-wrapper '__setattr__' of exceptions.SyntaxError object>"
p26
sS'__reduce_ex__'
p27
S'<built-in method __reduce_ex__ of exceptions.SyntaxError object>'
p28
sS'__new__'
p29
S'<built-in method __new__ of type object>'
p30
sS'__format__'
p31
S'<built-in method __format__ of exceptions.SyntaxError object>'
p32
sS'__class__'
p33
S"<type 'exceptions.SyntaxError'>"
p34
sS'filename'
p35
S"'/home/diazluis2007/web2py/applications/scec/models/1_tabla_perfil.py'"
p36
sS'lineno'
p37
S'18'
p38
sS'msg'
p39
S"'invalid syntax'"
p40
sS'__doc__'
p41
S"'Invalid syntax.'"
p42
sS'__getitem__'
p43
S"<method-wrapper '__getitem__' of exceptions.SyntaxError object>"
p44
sS'__setstate__'
p45
S'<built-in method __setstate__ of exceptions.SyntaxError object>'
p46
sS'__getattribute__'
p47
S"<method-wrapper '__getattribute__' of exceptions.SyntaxError object>"
p48
sS'print_file_and_line'
p49
S'None'
p50
sS'args'
p51
S'(\'invalid syntax\', (\'/home/diazluis2007/web2py/applications/scec/models/1_tabla_perfil.py\', 18, 59, "    Field(\'tipo\', \'string\', length=1, default=\'b\'  writable=False),\\n"))'
p52
sS'__subclasshook__'
p53
S'<built-in method __subclasshook__ of type object>'
p54
sS'offset'
p55
S'59'
p56
sS'__unicode__'
p57
S'<built-in method __unicode__ of exceptions.SyntaxError object>'
p58
sS'__delattr__'
p59
S"<method-wrapper '__delattr__' of exceptions.SyntaxError object>"
p60
sS'__repr__'
p61
S"<method-wrapper '__repr__' of exceptions.SyntaxError object>"
p62
sS'__hash__'
p63
S"<method-wrapper '__hash__' of exceptions.SyntaxError object>"
p64
ssS'evalue'
p65
S'invalid syntax (1_tabla_perfil.py, line 18)'
p66
sS'request'
p67
ccopy_reg
_reconstructor
p68
(cgluon.html
BEAUTIFY
p69
c__builtin__
object
p70
NtRp71
(dp72
S'attributes'
p73
(dp74
sS'components'
p75
(lp76
g68
(cgluon.html
TABLE
p77
g70
NtRp78
(dp79
g73
(dp80
S'level'
p81
I5
ssS'parent'
p82
Nsg75
(lp83
g68
(cgluon.html
TR
p84
g70
NtRp85
(dp86
g73
(dp87
sg82
g78
sg75
(lp88
g68
(cgluon.html
TD
p89
g70
NtRp90
(dp91
g73
(dp92
S'_style'
p93
S'font-weight:bold;'
p94
ssg82
g85
sg75
(lp95
S'ajax'
p96
asbag68
(g89
g70
NtRp97
(dp98
g73
(dp99
S'_valign'
p100
S'top'
p101
ssg82
g85
sg75
(lp102
S':'
asbag68
(g89
g70
NtRp103
(dp104
g73
(dp105
sg82
g85
sg75
(lp106
g68
(g69
g70
NtRp107
(dp108
g73
(dp109
g81
I5
ssg82
g103
sg75
(lp110
S'False'
p111
asbasbasbag68
(g84
g70
NtRp112
(dp113
g73
(dp114
sg82
g78
sg75
(lp115
g68
(g89
g70
NtRp116
(dp117
g73
(dp118
g93
g94
ssg82
g112
sg75
(lp119
S'application'
p120
asbag68
(g89
g70
NtRp121
(dp122
g73
(dp123
g100
g101
ssg82
g112
sg75
(lp124
S':'
asbag68
(g89
g70
NtRp125
(dp126
g73
(dp127
sg82
g112
sg75
(lp128
g68
(g69
g70
NtRp129
(dp130
g73
(dp131
g81
I5
ssg82
g125
sg75
(lp132
S'scec'
p133
asbasbasbag68
(g84
g70
NtRp134
(dp135
g73
(dp136
sg82
g78
sg75
(lp137
g68
(g89
g70
NtRp138
(dp139
g73
(dp140
g93
g94
ssg82
g134
sg75
(lp141
g51
asbag68
(g89
g70
NtRp142
(dp143
g73
(dp144
g100
g101
ssg82
g134
sg75
(lp145
S':'
asbag68
(g89
g70
NtRp146
(dp147
g73
(dp148
sg82
g134
sg75
(lp149
g68
(g69
g70
NtRp150
(dp151
g73
(dp152
g81
I5
ssg82
g146
sg75
(lp153
g68
(g77
g70
NtRp154
(dp155
g73
(dp156
g81
I4
ssg82
Nsg75
(lp157
g68
(g84
g70
NtRp158
(dp159
g73
(dp160
sg82
g154
sg75
(lp161
g68
(g89
g70
NtRp162
(dp163
g73
(dp164
sg82
g158
sg75
(lp165
g68
(g69
g70
NtRp166
(dp167
g73
(dp168
g81
I4
ssg82
g162
sg75
(lp169
S'profile'
p170
asbasbasbasbasbasbasbag68
(g84
g70
NtRp171
(dp172
g73
(dp173
sg82
g78
sg75
(lp174
g68
(g89
g70
NtRp175
(dp176
g73
(dp177
g93
g94
ssg82
g171
sg75
(lp178
S'body'
p179
asbag68
(g89
g70
NtRp180
(dp181
g73
(dp182
g100
g101
ssg82
g171
sg75
(lp183
S':'
asbag68
(g89
g70
NtRp184
(dp185
g73
(dp186
sg82
g171
sg75
(lp187
g68
(g69
g70
NtRp188
(dp189
g73
(dp190
g81
I5
ssg82
g184
sg75
(lp191
S'<cStringIO.StringO object at 0x33c7b20>'
p192
asbasbasbag68
(g84
g70
NtRp193
(dp194
g73
(dp195
sg82
g78
sg75
(lp196
g68
(g89
g70
NtRp197
(dp198
g73
(dp199
g93
g94
ssg82
g193
sg75
(lp200
S'client'
p201
asbag68
(g89
g70
NtRp202
(dp203
g73
(dp204
g100
g101
ssg82
g193
sg75
(lp205
S':'
asbag68
(g89
g70
NtRp206
(dp207
g73
(dp208
sg82
g193
sg75
(lp209
g68
(g69
g70
NtRp210
(dp211
g73
(dp212
g81
I5
ssg82
g206
sg75
(lp213
S'127.0.0.1'
p214
asbasbasbag68
(g84
g70
NtRp215
(dp216
g73
(dp217
sg82
g78
sg75
(lp218
g68
(g89
g70
NtRp219
(dp220
g73
(dp221
g93
g94
ssg82
g215
sg75
(lp222
S'controller'
p223
asbag68
(g89
g70
NtRp224
(dp225
g73
(dp226
g100
g101
ssg82
g215
sg75
(lp227
S':'
asbag68
(g89
g70
NtRp228
(dp229
g73
(dp230
sg82
g215
sg75
(lp231
g68
(g69
g70
NtRp232
(dp233
g73
(dp234
g81
I5
ssg82
g228
sg75
(lp235
S'default'
p236
asbasbasbag68
(g84
g70
NtRp237
(dp238
g73
(dp239
sg82
g78
sg75
(lp240
g68
(g89
g70
NtRp241
(dp242
g73
(dp243
g93
g94
ssg82
g237
sg75
(lp244
S'cookies'
p245
asbag68
(g89
g70
NtRp246
(dp247
g73
(dp248
g100
g101
ssg82
g237
sg75
(lp249
S':'
asbag68
(g89
g70
NtRp250
(dp251
g73
(dp252
sg82
g237
sg75
(lp253
g68
(g69
g70
NtRp254
(dp255
g73
(dp256
g81
I5
ssg82
g250
sg75
(lp257
g68
(g77
g70
NtRp258
(dp259
g73
(dp260
g81
I4
ssg82
Nsg75
(lp261
g68
(g84
g70
NtRp262
(dp263
g73
(dp264
sg82
g258
sg75
(lp265
g68
(g89
g70
NtRp266
(dp267
g73
(dp268
g93
g94
ssg82
g262
sg75
(lp269
S'session_id_admin'
p270
asbag68
(g89
g70
NtRp271
(dp272
g73
(dp273
g100
g101
ssg82
g262
sg75
(lp274
S':'
asbag68
(g89
g70
NtRp275
(dp276
g73
(dp277
sg82
g262
sg75
(lp278
g68
(g69
g70
NtRp279
(dp280
g73
(dp281
g81
I4
ssg82
g275
sg75
(lp282
g68
(g77
g70
NtRp283
(dp284
g73
(dp285
g81
I3
ssg82
Nsg75
(lp286
g68
(g84
g70
NtRp287
(dp288
g73
(dp289
sg82
g283
sg75
(lp290
g68
(g89
g70
NtRp291
(dp292
g73
(dp293
g93
g94
ssg82
g287
sg75
(lp294
S'comment'
p295
asbag68
(g89
g70
NtRp296
(dp297
g73
(dp298
g100
g101
ssg82
g287
sg75
(lp299
S':'
asbag68
(g89
g70
NtRp300
(dp301
g73
(dp302
sg82
g287
sg75
(lp303
g68
(g69
g70
NtRp304
(dp305
g73
(dp306
g81
I3
ssg82
g300
sg75
(lp307
S''
asbasbasbag68
(g84
g70
NtRp308
(dp309
g73
(dp310
sg82
g283
sg75
(lp311
g68
(g89
g70
NtRp312
(dp313
g73
(dp314
g93
g94
ssg82
g308
sg75
(lp315
S'domain'
p316
asbag68
(g89
g70
NtRp317
(dp318
g73
(dp319
g100
g101
ssg82
g308
sg75
(lp320
S':'
asbag68
(g89
g70
NtRp321
(dp322
g73
(dp323
sg82
g308
sg75
(lp324
g68
(g69
g70
NtRp325
(dp326
g73
(dp327
g81
I3
ssg82
g321
sg75
(lp328
S''
asbasbasbag68
(g84
g70
NtRp329
(dp330
g73
(dp331
sg82
g283
sg75
(lp332
g68
(g89
g70
NtRp333
(dp334
g73
(dp335
g93
g94
ssg82
g329
sg75
(lp336
S'expires'
p337
asbag68
(g89
g70
NtRp338
(dp339
g73
(dp340
g100
g101
ssg82
g329
sg75
(lp341
S':'
asbag68
(g89
g70
NtRp342
(dp343
g73
(dp344
sg82
g329
sg75
(lp345
g68
(g69
g70
NtRp346
(dp347
g73
(dp348
g81
I3
ssg82
g342
sg75
(lp349
S''
asbasbasbag68
(g84
g70
NtRp350
(dp351
g73
(dp352
sg82
g283
sg75
(lp353
g68
(g89
g70
NtRp354
(dp355
g73
(dp356
g93
g94
ssg82
g350
sg75
(lp357
S'httponly'
p358
asbag68
(g89
g70
NtRp359
(dp360
g73
(dp361
g100
g101
ssg82
g350
sg75
(lp362
S':'
asbag68
(g89
g70
NtRp363
(dp364
g73
(dp365
sg82
g350
sg75
(lp366
g68
(g69
g70
NtRp367
(dp368
g73
(dp369
g81
I3
ssg82
g363
sg75
(lp370
S''
asbasbasbag68
(g84
g70
NtRp371
(dp372
g73
(dp373
sg82
g283
sg75
(lp374
g68
(g89
g70
NtRp375
(dp376
g73
(dp377
g93
g94
ssg82
g371
sg75
(lp378
S'max-age'
p379
asbag68
(g89
g70
NtRp380
(dp381
g73
(dp382
g100
g101
ssg82
g371
sg75
(lp383
S':'
asbag68
(g89
g70
NtRp384
(dp385
g73
(dp386
sg82
g371
sg75
(lp387
g68
(g69
g70
NtRp388
(dp389
g73
(dp390
g81
I3
ssg82
g384
sg75
(lp391
S''
asbasbasbag68
(g84
g70
NtRp392
(dp393
g73
(dp394
sg82
g283
sg75
(lp395
g68
(g89
g70
NtRp396
(dp397
g73
(dp398
g93
g94
ssg82
g392
sg75
(lp399
S'path'
p400
asbag68
(g89
g70
NtRp401
(dp402
g73
(dp403
g100
g101
ssg82
g392
sg75
(lp404
S':'
asbag68
(g89
g70
NtRp405
(dp406
g73
(dp407
sg82
g392
sg75
(lp408
g68
(g69
g70
NtRp409
(dp410
g73
(dp411
g81
I3
ssg82
g405
sg75
(lp412
S''
asbasbasbag68
(g84
g70
NtRp413
(dp414
g73
(dp415
sg82
g283
sg75
(lp416
g68
(g89
g70
NtRp417
(dp418
g73
(dp419
g93
g94
ssg82
g413
sg75
(lp420
S'secure'
p421
asbag68
(g89
g70
NtRp422
(dp423
g73
(dp424
g100
g101
ssg82
g413
sg75
(lp425
S':'
asbag68
(g89
g70
NtRp426
(dp427
g73
(dp428
sg82
g413
sg75
(lp429
g68
(g69
g70
NtRp430
(dp431
g73
(dp432
g81
I3
ssg82
g426
sg75
(lp433
S''
asbasbasbag68
(g84
g70
NtRp434
(dp435
g73
(dp436
sg82
g283
sg75
(lp437
g68
(g89
g70
NtRp438
(dp439
g73
(dp440
g93
g94
ssg82
g434
sg75
(lp441
S'version'
p442
asbag68
(g89
g70
NtRp443
(dp444
g73
(dp445
g100
g101
ssg82
g434
sg75
(lp446
S':'
asbag68
(g89
g70
NtRp447
(dp448
g73
(dp449
sg82
g434
sg75
(lp450
g68
(g69
g70
NtRp451
(dp452
g73
(dp453
g81
I3
ssg82
g447
sg75
(lp454
S''
asbasbasbasbasbasbasbag68
(g84
g70
NtRp455
(dp456
g73
(dp457
sg82
g258
sg75
(lp458
g68
(g89
g70
NtRp459
(dp460
g73
(dp461
g93
g94
ssg82
g455
sg75
(lp462
S'session_id_scec'
p463
asbag68
(g89
g70
NtRp464
(dp465
g73
(dp466
g100
g101
ssg82
g455
sg75
(lp467
S':'
asbag68
(g89
g70
NtRp468
(dp469
g73
(dp470
sg82
g455
sg75
(lp471
g68
(g69
g70
NtRp472
(dp473
g73
(dp474
g81
I4
ssg82
g468
sg75
(lp475
g68
(g77
g70
NtRp476
(dp477
g73
(dp478
g81
I3
ssg82
Nsg75
(lp479
g68
(g84
g70
NtRp480
(dp481
g73
(dp482
sg82
g476
sg75
(lp483
g68
(g89
g70
NtRp484
(dp485
g73
(dp486
g93
g94
ssg82
g480
sg75
(lp487
g295
asbag68
(g89
g70
NtRp488
(dp489
g73
(dp490
g100
g101
ssg82
g480
sg75
(lp491
S':'
asbag68
(g89
g70
NtRp492
(dp493
g73
(dp494
sg82
g480
sg75
(lp495
g68
(g69
g70
NtRp496
(dp497
g73
(dp498
g81
I3
ssg82
g492
sg75
(lp499
S''
asbasbasbag68
(g84
g70
NtRp500
(dp501
g73
(dp502
sg82
g476
sg75
(lp503
g68
(g89
g70
NtRp504
(dp505
g73
(dp506
g93
g94
ssg82
g500
sg75
(lp507
g316
asbag68
(g89
g70
NtRp508
(dp509
g73
(dp510
g100
g101
ssg82
g500
sg75
(lp511
S':'
asbag68
(g89
g70
NtRp512
(dp513
g73
(dp514
sg82
g500
sg75
(lp515
g68
(g69
g70
NtRp516
(dp517
g73
(dp518
g81
I3
ssg82
g512
sg75
(lp519
S''
asbasbasbag68
(g84
g70
NtRp520
(dp521
g73
(dp522
sg82
g476
sg75
(lp523
g68
(g89
g70
NtRp524
(dp525
g73
(dp526
g93
g94
ssg82
g520
sg75
(lp527
g337
asbag68
(g89
g70
NtRp528
(dp529
g73
(dp530
g100
g101
ssg82
g520
sg75
(lp531
S':'
asbag68
(g89
g70
NtRp532
(dp533
g73
(dp534
sg82
g520
sg75
(lp535
g68
(g69
g70
NtRp536
(dp537
g73
(dp538
g81
I3
ssg82
g532
sg75
(lp539
S''
asbasbasbag68
(g84
g70
NtRp540
(dp541
g73
(dp542
sg82
g476
sg75
(lp543
g68
(g89
g70
NtRp544
(dp545
g73
(dp546
g93
g94
ssg82
g540
sg75
(lp547
g358
asbag68
(g89
g70
NtRp548
(dp549
g73
(dp550
g100
g101
ssg82
g540
sg75
(lp551
S':'
asbag68
(g89
g70
NtRp552
(dp553
g73
(dp554
sg82
g540
sg75
(lp555
g68
(g69
g70
NtRp556
(dp557
g73
(dp558
g81
I3
ssg82
g552
sg75
(lp559
S''
asbasbasbag68
(g84
g70
NtRp560
(dp561
g73
(dp562
sg82
g476
sg75
(lp563
g68
(g89
g70
NtRp564
(dp565
g73
(dp566
g93
g94
ssg82
g560
sg75
(lp567
g379
asbag68
(g89
g70
NtRp568
(dp569
g73
(dp570
g100
g101
ssg82
g560
sg75
(lp571
S':'
asbag68
(g89
g70
NtRp572
(dp573
g73
(dp574
sg82
g560
sg75
(lp575
g68
(g69
g70
NtRp576
(dp577
g73
(dp578
g81
I3
ssg82
g572
sg75
(lp579
S''
asbasbasbag68
(g84
g70
NtRp580
(dp581
g73
(dp582
sg82
g476
sg75
(lp583
g68
(g89
g70
NtRp584
(dp585
g73
(dp586
g93
g94
ssg82
g580
sg75
(lp587
g400
asbag68
(g89
g70
NtRp588
(dp589
g73
(dp590
g100
g101
ssg82
g580
sg75
(lp591
S':'
asbag68
(g89
g70
NtRp592
(dp593
g73
(dp594
sg82
g580
sg75
(lp595
g68
(g69
g70
NtRp596
(dp597
g73
(dp598
g81
I3
ssg82
g592
sg75
(lp599
S''
asbasbasbag68
(g84
g70
NtRp600
(dp601
g73
(dp602
sg82
g476
sg75
(lp603
g68
(g89
g70
NtRp604
(dp605
g73
(dp606
g93
g94
ssg82
g600
sg75
(lp607
g421
asbag68
(g89
g70
NtRp608
(dp609
g73
(dp610
g100
g101
ssg82
g600
sg75
(lp611
S':'
asbag68
(g89
g70
NtRp612
(dp613
g73
(dp614
sg82
g600
sg75
(lp615
g68
(g69
g70
NtRp616
(dp617
g73
(dp618
g81
I3
ssg82
g612
sg75
(lp619
S''
asbasbasbag68
(g84
g70
NtRp620
(dp621
g73
(dp622
sg82
g476
sg75
(lp623
g68
(g89
g70
NtRp624
(dp625
g73
(dp626
g93
g94
ssg82
g620
sg75
(lp627
g442
asbag68
(g89
g70
NtRp628
(dp629
g73
(dp630
g100
g101
ssg82
g620
sg75
(lp631
S':'
asbag68
(g89
g70
NtRp632
(dp633
g73
(dp634
sg82
g620
sg75
(lp635
g68
(g69
g70
NtRp636
(dp637
g73
(dp638
g81
I3
ssg82
g632
sg75
(lp639
S''
asbasbasbasbasbasbasbag68
(g84
g70
NtRp640
(dp641
g73
(dp642
sg82
g258
sg75
(lp643
g68
(g89
g70
NtRp644
(dp645
g73
(dp646
g93
g94
ssg82
g640
sg75
(lp647
S'session_id_welcome'
p648
asbag68
(g89
g70
NtRp649
(dp650
g73
(dp651
g100
g101
ssg82
g640
sg75
(lp652
S':'
asbag68
(g89
g70
NtRp653
(dp654
g73
(dp655
sg82
g640
sg75
(lp656
g68
(g69
g70
NtRp657
(dp658
g73
(dp659
g81
I4
ssg82
g653
sg75
(lp660
g68
(g77
g70
NtRp661
(dp662
g73
(dp663
g81
I3
ssg82
Nsg75
(lp664
g68
(g84
g70
NtRp665
(dp666
g73
(dp667
sg82
g661
sg75
(lp668
g68
(g89
g70
NtRp669
(dp670
g73
(dp671
g93
g94
ssg82
g665
sg75
(lp672
g295
asbag68
(g89
g70
NtRp673
(dp674
g73
(dp675
g100
g101
ssg82
g665
sg75
(lp676
S':'
asbag68
(g89
g70
NtRp677
(dp678
g73
(dp679
sg82
g665
sg75
(lp680
g68
(g69
g70
NtRp681
(dp682
g73
(dp683
g81
I3
ssg82
g677
sg75
(lp684
S''
asbasbasbag68
(g84
g70
NtRp685
(dp686
g73
(dp687
sg82
g661
sg75
(lp688
g68
(g89
g70
NtRp689
(dp690
g73
(dp691
g93
g94
ssg82
g685
sg75
(lp692
g316
asbag68
(g89
g70
NtRp693
(dp694
g73
(dp695
g100
g101
ssg82
g685
sg75
(lp696
S':'
asbag68
(g89
g70
NtRp697
(dp698
g73
(dp699
sg82
g685
sg75
(lp700
g68
(g69
g70
NtRp701
(dp702
g73
(dp703
g81
I3
ssg82
g697
sg75
(lp704
S''
asbasbasbag68
(g84
g70
NtRp705
(dp706
g73
(dp707
sg82
g661
sg75
(lp708
g68
(g89
g70
NtRp709
(dp710
g73
(dp711
g93
g94
ssg82
g705
sg75
(lp712
g337
asbag68
(g89
g70
NtRp713
(dp714
g73
(dp715
g100
g101
ssg82
g705
sg75
(lp716
S':'
asbag68
(g89
g70
NtRp717
(dp718
g73
(dp719
sg82
g705
sg75
(lp720
g68
(g69
g70
NtRp721
(dp722
g73
(dp723
g81
I3
ssg82
g717
sg75
(lp724
S''
asbasbasbag68
(g84
g70
NtRp725
(dp726
g73
(dp727
sg82
g661
sg75
(lp728
g68
(g89
g70
NtRp729
(dp730
g73
(dp731
g93
g94
ssg82
g725
sg75
(lp732
g358
asbag68
(g89
g70
NtRp733
(dp734
g73
(dp735
g100
g101
ssg82
g725
sg75
(lp736
S':'
asbag68
(g89
g70
NtRp737
(dp738
g73
(dp739
sg82
g725
sg75
(lp740
g68
(g69
g70
NtRp741
(dp742
g73
(dp743
g81
I3
ssg82
g737
sg75
(lp744
S''
asbasbasbag68
(g84
g70
NtRp745
(dp746
g73
(dp747
sg82
g661
sg75
(lp748
g68
(g89
g70
NtRp749
(dp750
g73
(dp751
g93
g94
ssg82
g745
sg75
(lp752
g379
asbag68
(g89
g70
NtRp753
(dp754
g73
(dp755
g100
g101
ssg82
g745
sg75
(lp756
S':'
asbag68
(g89
g70
NtRp757
(dp758
g73
(dp759
sg82
g745
sg75
(lp760
g68
(g69
g70
NtRp761
(dp762
g73
(dp763
g81
I3
ssg82
g757
sg75
(lp764
S''
asbasbasbag68
(g84
g70
NtRp765
(dp766
g73
(dp767
sg82
g661
sg75
(lp768
g68
(g89
g70
NtRp769
(dp770
g73
(dp771
g93
g94
ssg82
g765
sg75
(lp772
g400
asbag68
(g89
g70
NtRp773
(dp774
g73
(dp775
g100
g101
ssg82
g765
sg75
(lp776
S':'
asbag68
(g89
g70
NtRp777
(dp778
g73
(dp779
sg82
g765
sg75
(lp780
g68
(g69
g70
NtRp781
(dp782
g73
(dp783
g81
I3
ssg82
g777
sg75
(lp784
S''
asbasbasbag68
(g84
g70
NtRp785
(dp786
g73
(dp787
sg82
g661
sg75
(lp788
g68
(g89
g70
NtRp789
(dp790
g73
(dp791
g93
g94
ssg82
g785
sg75
(lp792
g421
asbag68
(g89
g70
NtRp793
(dp794
g73
(dp795
g100
g101
ssg82
g785
sg75
(lp796
S':'
asbag68
(g89
g70
NtRp797
(dp798
g73
(dp799
sg82
g785
sg75
(lp800
g68
(g69
g70
NtRp801
(dp802
g73
(dp803
g81
I3
ssg82
g797
sg75
(lp804
S''
asbasbasbag68
(g84
g70
NtRp805
(dp806
g73
(dp807
sg82
g661
sg75
(lp808
g68
(g89
g70
NtRp809
(dp810
g73
(dp811
g93
g94
ssg82
g805
sg75
(lp812
g442
asbag68
(g89
g70
NtRp813
(dp814
g73
(dp815
g100
g101
ssg82
g805
sg75
(lp816
S':'
asbag68
(g89
g70
NtRp817
(dp818
g73
(dp819
sg82
g805
sg75
(lp820
g68
(g69
g70
NtRp821
(dp822
g73
(dp823
g81
I3
ssg82
g817
sg75
(lp824
S''
asbasbasbasbasbasbasbasbasbasbasbag68
(g84
g70
NtRp825
(dp826
g73
(dp827
sg82
g78
sg75
(lp828
g68
(g89
g70
NtRp829
(dp830
g73
(dp831
g93
g94
ssg82
g825
sg75
(lp832
S'env'
p833
asbag68
(g89
g70
NtRp834
(dp835
g73
(dp836
g100
g101
ssg82
g825
sg75
(lp837
S':'
asbag68
(g89
g70
NtRp838
(dp839
g73
(dp840
sg82
g825
sg75
(lp841
g68
(g69
g70
NtRp842
(dp843
g73
(dp844
g81
I5
ssg82
g838
sg75
(lp845
g68
(g77
g70
NtRp846
(dp847
g73
(dp848
g81
I4
ssg82
Nsg75
(lp849
g68
(g84
g70
NtRp850
(dp851
g73
(dp852
sg82
g846
sg75
(lp853
g68
(g89
g70
NtRp854
(dp855
g73
(dp856
g93
g94
ssg82
g850
sg75
(lp857
S'app_folders'
p858
asbag68
(g89
g70
NtRp859
(dp860
g73
(dp861
g100
g101
ssg82
g850
sg75
(lp862
S':'
asbag68
(g89
g70
NtRp863
(dp864
g73
(dp865
sg82
g850
sg75
(lp866
g68
(g69
g70
NtRp867
(dp868
g73
(dp869
g81
I4
ssg82
g863
sg75
(lp870
S"set(['/home/diazluis2007/web2py/applications/welcome/', '/home/diazluis2007/web2py/applications/scec/', '/home/diazluis2007/web2py/applications/admin/'])"
p871
asbasbasbag68
(g84
g70
NtRp872
(dp873
g73
(dp874
sg82
g846
sg75
(lp875
g68
(g89
g70
NtRp876
(dp877
g73
(dp878
g93
g94
ssg82
g872
sg75
(lp879
S'applications_parent'
p880
asbag68
(g89
g70
NtRp881
(dp882
g73
(dp883
g100
g101
ssg82
g872
sg75
(lp884
S':'
asbag68
(g89
g70
NtRp885
(dp886
g73
(dp887
sg82
g872
sg75
(lp888
g68
(g69
g70
NtRp889
(dp890
g73
(dp891
g81
I4
ssg82
g885
sg75
(lp892
S'/home/diazluis2007/web2py'
p893
asbasbasbag68
(g84
g70
NtRp894
(dp895
g73
(dp896
sg82
g846
sg75
(lp897
g68
(g89
g70
NtRp898
(dp899
g73
(dp900
g93
g94
ssg82
g894
sg75
(lp901
S'cmd_args'
p902
asbag68
(g89
g70
NtRp903
(dp904
g73
(dp905
g100
g101
ssg82
g894
sg75
(lp906
S':'
asbag68
(g89
g70
NtRp907
(dp908
g73
(dp909
sg82
g894
sg75
(lp910
g68
(g69
g70
NtRp911
(dp912
g73
(dp913
g81
I4
ssg82
g907
sg75
(lp914
g68
(g77
g70
NtRp915
(dp916
g73
(dp917
g81
I3
ssg82
Nsg75
(lp918
sbasbasbasbag68
(g84
g70
NtRp919
(dp920
g73
(dp921
sg82
g846
sg75
(lp922
g68
(g89
g70
NtRp923
(dp924
g73
(dp925
g93
g94
ssg82
g919
sg75
(lp926
S'cmd_options'
p927
asbag68
(g89
g70
NtRp928
(dp929
g73
(dp930
g100
g101
ssg82
g919
sg75
(lp931
S':'
asbag68
(g89
g70
NtRp932
(dp933
g73
(dp934
sg82
g919
sg75
(lp935
g68
(g69
g70
NtRp936
(dp937
g73
(dp938
g81
I4
ssg82
g932
sg75
(lp939
S"<Values at 0x2a37ef0: {'verbose': False, 'ip': '127.0.0.1', 'shutdown_timeout': 5, 'taskbar': False, 'port': 8000, 'maxthreads': None, 'softcron': False, 'server_name': 'morfeo', 'bpython': False, 'nogui': False, 'nocron': False, 'extcron': False, 'debuglevel': 30, 'test': None, 'folder': '/home/diazluis2007/web2py', 'config': '', 'import_models': False, 'winservice': '', 'shell': None, 'run': '', 'log_filename': 'httpserver.log', 'args': [''], 'profiler_filename': None, 'ssl_private_key': '', 'password': '<ask>', 'request_queue_size': 5, 'ssl_certificate': '', 'cronjob': False, 'plain': False, 'quiet': False, 'interfaces': None, 'minthreads': None, 'timeout': 10, 'numthreads': None, 'nobanner': False, 'pid_filename': 'httpserver.pid'}>"
p940
asbasbasbag68
(g84
g70
NtRp941
(dp942
g73
(dp943
sg82
g846
sg75
(lp944
g68
(g89
g70
NtRp945
(dp946
g73
(dp947
g93
g94
ssg82
g941
sg75
(lp948
S'db_sessions'
p949
asbag68
(g89
g70
NtRp950
(dp951
g73
(dp952
g100
g101
ssg82
g941
sg75
(lp953
S':'
asbag68
(g89
g70
NtRp954
(dp955
g73
(dp956
sg82
g941
sg75
(lp957
g68
(g69
g70
NtRp958
(dp959
g73
(dp960
g81
I4
ssg82
g954
sg75
(lp961
S'set([])'
p962
asbasbasbag68
(g84
g70
NtRp963
(dp964
g73
(dp965
sg82
g846
sg75
(lp966
g68
(g89
g70
NtRp967
(dp968
g73
(dp969
g93
g94
ssg82
g963
sg75
(lp970
S'debugging'
p971
asbag68
(g89
g70
NtRp972
(dp973
g73
(dp974
g100
g101
ssg82
g963
sg75
(lp975
S':'
asbag68
(g89
g70
NtRp976
(dp977
g73
(dp978
sg82
g963
sg75
(lp979
g68
(g69
g70
NtRp980
(dp981
g73
(dp982
g81
I4
ssg82
g976
sg75
(lp983
g111
asbasbasbag68
(g84
g70
NtRp984
(dp985
g73
(dp986
sg82
g846
sg75
(lp987
g68
(g89
g70
NtRp988
(dp989
g73
(dp990
g93
g94
ssg82
g984
sg75
(lp991
S'gluon_parent'
p992
asbag68
(g89
g70
NtRp993
(dp994
g73
(dp995
g100
g101
ssg82
g984
sg75
(lp996
S':'
asbag68
(g89
g70
NtRp997
(dp998
g73
(dp999
sg82
g984
sg75
(lp1000
g68
(g69
g70
NtRp1001
(dp1002
g73
(dp1003
g81
I4
ssg82
g997
sg75
(lp1004
S'/home/diazluis2007/web2py'
p1005
asbasbasbag68
(g84
g70
NtRp1006
(dp1007
g73
(dp1008
sg82
g846
sg75
(lp1009
g68
(g89
g70
NtRp1010
(dp1011
g73
(dp1012
g93
g94
ssg82
g1006
sg75
(lp1013
S'http_accept'
p1014
asbag68
(g89
g70
NtRp1015
(dp1016
g73
(dp1017
g100
g101
ssg82
g1006
sg75
(lp1018
S':'
asbag68
(g89
g70
NtRp1019
(dp1020
g73
(dp1021
sg82
g1006
sg75
(lp1022
g68
(g69
g70
NtRp1023
(dp1024
g73
(dp1025
g81
I4
ssg82
g1019
sg75
(lp1026
S'text/html,application/xhtml+xml,application/xml;q=0.9,*/*;q=0.8'
p1027
asbasbasbag68
(g84
g70
NtRp1028
(dp1029
g73
(dp1030
sg82
g846
sg75
(lp1031
g68
(g89
g70
NtRp1032
(dp1033
g73
(dp1034
g93
g94
ssg82
g1028
sg75
(lp1035
S'http_accept_charset'
p1036
asbag68
(g89
g70
NtRp1037
(dp1038
g73
(dp1039
g100
g101
ssg82
g1028
sg75
(lp1040
S':'
asbag68
(g89
g70
NtRp1041
(dp1042
g73
(dp1043
sg82
g1028
sg75
(lp1044
g68
(g69
g70
NtRp1045
(dp1046
g73
(dp1047
g81
I4
ssg82
g1041
sg75
(lp1048
S'UTF-8,*;q=0.5'
p1049
asbasbasbag68
(g84
g70
NtRp1050
(dp1051
g73
(dp1052
sg82
g846
sg75
(lp1053
g68
(g89
g70
NtRp1054
(dp1055
g73
(dp1056
g93
g94
ssg82
g1050
sg75
(lp1057
S'http_accept_encoding'
p1058
asbag68
(g89
g70
NtRp1059
(dp1060
g73
(dp1061
g100
g101
ssg82
g1050
sg75
(lp1062
S':'
asbag68
(g89
g70
NtRp1063
(dp1064
g73
(dp1065
sg82
g1050
sg75
(lp1066
g68
(g69
g70
NtRp1067
(dp1068
g73
(dp1069
g81
I4
ssg82
g1063
sg75
(lp1070
S'gzip,deflate,sdch'
p1071
asbasbasbag68
(g84
g70
NtRp1072
(dp1073
g73
(dp1074
sg82
g846
sg75
(lp1075
g68
(g89
g70
NtRp1076
(dp1077
g73
(dp1078
g93
g94
ssg82
g1072
sg75
(lp1079
S'http_accept_language'
p1080
asbag68
(g89
g70
NtRp1081
(dp1082
g73
(dp1083
g100
g101
ssg82
g1072
sg75
(lp1084
S':'
asbag68
(g89
g70
NtRp1085
(dp1086
g73
(dp1087
sg82
g1072
sg75
(lp1088
g68
(g69
g70
NtRp1089
(dp1090
g73
(dp1091
g81
I4
ssg82
g1085
sg75
(lp1092
S'es'
p1093
asbasbasbag68
(g84
g70
NtRp1094
(dp1095
g73
(dp1096
sg82
g846
sg75
(lp1097
g68
(g89
g70
NtRp1098
(dp1099
g73
(dp1100
g93
g94
ssg82
g1094
sg75
(lp1101
S'http_connection'
p1102
asbag68
(g89
g70
NtRp1103
(dp1104
g73
(dp1105
g100
g101
ssg82
g1094
sg75
(lp1106
S':'
asbag68
(g89
g70
NtRp1107
(dp1108
g73
(dp1109
sg82
g1094
sg75
(lp1110
g68
(g69
g70
NtRp1111
(dp1112
g73
(dp1113
g81
I4
ssg82
g1107
sg75
(lp1114
S'keep-alive'
p1115
asbasbasbag68
(g84
g70
NtRp1116
(dp1117
g73
(dp1118
sg82
g846
sg75
(lp1119
g68
(g89
g70
NtRp1120
(dp1121
g73
(dp1122
g93
g94
ssg82
g1116
sg75
(lp1123
S'http_cookie'
p1124
asbag68
(g89
g70
NtRp1125
(dp1126
g73
(dp1127
g100
g101
ssg82
g1116
sg75
(lp1128
S':'
asbag68
(g89
g70
NtRp1129
(dp1130
g73
(dp1131
sg82
g1116
sg75
(lp1132
g68
(g69
g70
NtRp1133
(dp1134
g73
(dp1135
g81
I4
ssg82
g1129
sg75
(lp1136
S'session_id_welcome=127.0.0.1-92bbc7b1-5b72-4fcd-a63d-041cfc8d7a33; session_id_admin=127.0.0.1-2ed1c25f-d3ba-4c6c-a7a8-9a65d7bd834b; session_id_scec=127.0.0.1-fca1a99d-46e6-4ae6-8243-8e73256055d7'
p1137
asbasbasbag68
(g84
g70
NtRp1138
(dp1139
g73
(dp1140
sg82
g846
sg75
(lp1141
g68
(g89
g70
NtRp1142
(dp1143
g73
(dp1144
g93
g94
ssg82
g1138
sg75
(lp1145
S'http_host'
p1146
asbag68
(g89
g70
NtRp1147
(dp1148
g73
(dp1149
g100
g101
ssg82
g1138
sg75
(lp1150
S':'
asbag68
(g89
g70
NtRp1151
(dp1152
g73
(dp1153
sg82
g1138
sg75
(lp1154
g68
(g69
g70
NtRp1155
(dp1156
g73
(dp1157
g81
I4
ssg82
g1151
sg75
(lp1158
S'127.0.0.1:8000'
p1159
asbasbasbag68
(g84
g70
NtRp1160
(dp1161
g73
(dp1162
sg82
g846
sg75
(lp1163
g68
(g89
g70
NtRp1164
(dp1165
g73
(dp1166
g93
g94
ssg82
g1160
sg75
(lp1167
S'http_referer'
p1168
asbag68
(g89
g70
NtRp1169
(dp1170
g73
(dp1171
g100
g101
ssg82
g1160
sg75
(lp1172
S':'
asbag68
(g89
g70
NtRp1173
(dp1174
g73
(dp1175
sg82
g1160
sg75
(lp1176
g68
(g69
g70
NtRp1177
(dp1178
g73
(dp1179
g81
I4
ssg82
g1173
sg75
(lp1180
S'http://127.0.0.1:8000/scec/default/user/profile'
p1181
asbasbasbag68
(g84
g70
NtRp1182
(dp1183
g73
(dp1184
sg82
g846
sg75
(lp1185
g68
(g89
g70
NtRp1186
(dp1187
g73
(dp1188
g93
g94
ssg82
g1182
sg75
(lp1189
S'http_user_agent'
p1190
asbag68
(g89
g70
NtRp1191
(dp1192
g73
(dp1193
g100
g101
ssg82
g1182
sg75
(lp1194
S':'
asbag68
(g89
g70
NtRp1195
(dp1196
g73
(dp1197
sg82
g1182
sg75
(lp1198
g68
(g69
g70
NtRp1199
(dp1200
g73
(dp1201
g81
I4
ssg82
g1195
sg75
(lp1202
S'Mozilla/5.0 (X11; Linux x86_64) AppleWebKit/534.30 (KHTML, like Gecko) Chrome/12.0.742.124 Safari/534.30'
p1203
asbasbasbag68
(g84
g70
NtRp1204
(dp1205
g73
(dp1206
sg82
g846
sg75
(lp1207
g68
(g89
g70
NtRp1208
(dp1209
g73
(dp1210
g93
g94
ssg82
g1204
sg75
(lp1211
S'path_info'
p1212
asbag68
(g89
g70
NtRp1213
(dp1214
g73
(dp1215
g100
g101
ssg82
g1204
sg75
(lp1216
S':'
asbag68
(g89
g70
NtRp1217
(dp1218
g73
(dp1219
sg82
g1204
sg75
(lp1220
g68
(g69
g70
NtRp1221
(dp1222
g73
(dp1223
g81
I4
ssg82
g1217
sg75
(lp1224
S'/scec/default/user/profile'
p1225
asbasbasbag68
(g84
g70
NtRp1226
(dp1227
g73
(dp1228
sg82
g846
sg75
(lp1229
g68
(g89
g70
NtRp1230
(dp1231
g73
(dp1232
g93
g94
ssg82
g1226
sg75
(lp1233
S'query_string'
p1234
asbag68
(g89
g70
NtRp1235
(dp1236
g73
(dp1237
g100
g101
ssg82
g1226
sg75
(lp1238
S':'
asbag68
(g89
g70
NtRp1239
(dp1240
g73
(dp1241
sg82
g1226
sg75
(lp1242
g68
(g69
g70
NtRp1243
(dp1244
g73
(dp1245
g81
I4
ssg82
g1239
sg75
(lp1246
S''
asbasbasbag68
(g84
g70
NtRp1247
(dp1248
g73
(dp1249
sg82
g846
sg75
(lp1250
g68
(g89
g70
NtRp1251
(dp1252
g73
(dp1253
g93
g94
ssg82
g1247
sg75
(lp1254
S'remote_addr'
p1255
asbag68
(g89
g70
NtRp1256
(dp1257
g73
(dp1258
g100
g101
ssg82
g1247
sg75
(lp1259
S':'
asbag68
(g89
g70
NtRp1260
(dp1261
g73
(dp1262
sg82
g1247
sg75
(lp1263
g68
(g69
g70
NtRp1264
(dp1265
g73
(dp1266
g81
I4
ssg82
g1260
sg75
(lp1267
g214
asbasbasbag68
(g84
g70
NtRp1268
(dp1269
g73
(dp1270
sg82
g846
sg75
(lp1271
g68
(g89
g70
NtRp1272
(dp1273
g73
(dp1274
g93
g94
ssg82
g1268
sg75
(lp1275
S'remote_port'
p1276
asbag68
(g89
g70
NtRp1277
(dp1278
g73
(dp1279
g100
g101
ssg82
g1268
sg75
(lp1280
S':'
asbag68
(g89
g70
NtRp1281
(dp1282
g73
(dp1283
sg82
g1268
sg75
(lp1284
g68
(g69
g70
NtRp1285
(dp1286
g73
(dp1287
g81
I4
ssg82
g1281
sg75
(lp1288
S'37480'
p1289
asbasbasbag68
(g84
g70
NtRp1290
(dp1291
g73
(dp1292
sg82
g846
sg75
(lp1293
g68
(g89
g70
NtRp1294
(dp1295
g73
(dp1296
g93
g94
ssg82
g1290
sg75
(lp1297
S'request_method'
p1298
asbag68
(g89
g70
NtRp1299
(dp1300
g73
(dp1301
g100
g101
ssg82
g1290
sg75
(lp1302
S':'
asbag68
(g89
g70
NtRp1303
(dp1304
g73
(dp1305
sg82
g1290
sg75
(lp1306
g68
(g69
g70
NtRp1307
(dp1308
g73
(dp1309
g81
I4
ssg82
g1303
sg75
(lp1310
S'GET'
p1311
asbasbasbag68
(g84
g70
NtRp1312
(dp1313
g73
(dp1314
sg82
g846
sg75
(lp1315
g68
(g89
g70
NtRp1316
(dp1317
g73
(dp1318
g93
g94
ssg82
g1312
sg75
(lp1319
S'script_name'
p1320
asbag68
(g89
g70
NtRp1321
(dp1322
g73
(dp1323
g100
g101
ssg82
g1312
sg75
(lp1324
S':'
asbag68
(g89
g70
NtRp1325
(dp1326
g73
(dp1327
sg82
g1312
sg75
(lp1328
g68
(g69
g70
NtRp1329
(dp1330
g73
(dp1331
g81
I4
ssg82
g1325
sg75
(lp1332
S''
asbasbasbag68
(g84
g70
NtRp1333
(dp1334
g73
(dp1335
sg82
g846
sg75
(lp1336
g68
(g89
g70
NtRp1337
(dp1338
g73
(dp1339
g93
g94
ssg82
g1333
sg75
(lp1340
S'server_name'
p1341
asbag68
(g89
g70
NtRp1342
(dp1343
g73
(dp1344
g100
g101
ssg82
g1333
sg75
(lp1345
S':'
asbag68
(g89
g70
NtRp1346
(dp1347
g73
(dp1348
sg82
g1333
sg75
(lp1349
g68
(g69
g70
NtRp1350
(dp1351
g73
(dp1352
g81
I4
ssg82
g1346
sg75
(lp1353
S'morfeo'
p1354
asbasbasbag68
(g84
g70
NtRp1355
(dp1356
g73
(dp1357
sg82
g846
sg75
(lp1358
g68
(g89
g70
NtRp1359
(dp1360
g73
(dp1361
g93
g94
ssg82
g1355
sg75
(lp1362
S'server_port'
p1363
asbag68
(g89
g70
NtRp1364
(dp1365
g73
(dp1366
g100
g101
ssg82
g1355
sg75
(lp1367
S':'
asbag68
(g89
g70
NtRp1368
(dp1369
g73
(dp1370
sg82
g1355
sg75
(lp1371
g68
(g69
g70
NtRp1372
(dp1373
g73
(dp1374
g81
I4
ssg82
g1368
sg75
(lp1375
S'8000'
p1376
asbasbasbag68
(g84
g70
NtRp1377
(dp1378
g73
(dp1379
sg82
g846
sg75
(lp1380
g68
(g89
g70
NtRp1381
(dp1382
g73
(dp1383
g93
g94
ssg82
g1377
sg75
(lp1384
S'server_protocol'
p1385
asbag68
(g89
g70
NtRp1386
(dp1387
g73
(dp1388
g100
g101
ssg82
g1377
sg75
(lp1389
S':'
asbag68
(g89
g70
NtRp1390
(dp1391
g73
(dp1392
sg82
g1377
sg75
(lp1393
g68
(g69
g70
NtRp1394
(dp1395
g73
(dp1396
g81
I4
ssg82
g1390
sg75
(lp1397
S'HTTP/1.1'
p1398
asbasbasbag68
(g84
g70
NtRp1399
(dp1400
g73
(dp1401
sg82
g846
sg75
(lp1402
g68
(g89
g70
NtRp1403
(dp1404
g73
(dp1405
g93
g94
ssg82
g1399
sg75
(lp1406
S'server_software'
p1407
asbag68
(g89
g70
NtRp1408
(dp1409
g73
(dp1410
g100
g101
ssg82
g1399
sg75
(lp1411
S':'
asbag68
(g89
g70
NtRp1412
(dp1413
g73
(dp1414
sg82
g1399
sg75
(lp1415
g68
(g69
g70
NtRp1416
(dp1417
g73
(dp1418
g81
I4
ssg82
g1412
sg75
(lp1419
S'Rocket 1.2.2'
p1420
asbasbasbag68
(g84
g70
NtRp1421
(dp1422
g73
(dp1423
sg82
g846
sg75
(lp1424
g68
(g89
g70
NtRp1425
(dp1426
g73
(dp1427
g93
g94
ssg82
g1421
sg75
(lp1428
S'web2py_crontype'
p1429
asbag68
(g89
g70
NtRp1430
(dp1431
g73
(dp1432
g100
g101
ssg82
g1421
sg75
(lp1433
S':'
asbag68
(g89
g70
NtRp1434
(dp1435
g73
(dp1436
sg82
g1421
sg75
(lp1437
g68
(g69
g70
NtRp1438
(dp1439
g73
(dp1440
g81
I4
ssg82
g1434
sg75
(lp1441
S'hard'
p1442
asbasbasbag68
(g84
g70
NtRp1443
(dp1444
g73
(dp1445
sg82
g846
sg75
(lp1446
g68
(g89
g70
NtRp1447
(dp1448
g73
(dp1449
g93
g94
ssg82
g1443
sg75
(lp1450
S'web2py_path'
p1451
asbag68
(g89
g70
NtRp1452
(dp1453
g73
(dp1454
g100
g101
ssg82
g1443
sg75
(lp1455
S':'
asbag68
(g89
g70
NtRp1456
(dp1457
g73
(dp1458
sg82
g1443
sg75
(lp1459
g68
(g69
g70
NtRp1460
(dp1461
g73
(dp1462
g81
I4
ssg82
g1456
sg75
(lp1463
g893
asbasbasbag68
(g84
g70
NtRp1464
(dp1465
g73
(dp1466
sg82
g846
sg75
(lp1467
g68
(g89
g70
NtRp1468
(dp1469
g73
(dp1470
g93
g94
ssg82
g1464
sg75
(lp1471
S'web2py_version'
p1472
asbag68
(g89
g70
NtRp1473
(dp1474
g73
(dp1475
g100
g101
ssg82
g1464
sg75
(lp1476
S':'
asbag68
(g89
g70
NtRp1477
(dp1478
g73
(dp1479
sg82
g1464
sg75
(lp1480
g68
(g69
g70
NtRp1481
(dp1482
g73
(dp1483
g81
I4
ssg82
g1477
sg75
(lp1484
S'Version 1.97.1 (2011-06-26 19:25:44)\n'
p1485
asbasbasbag68
(g84
g70
NtRp1486
(dp1487
g73
(dp1488
sg82
g846
sg75
(lp1489
g68
(g89
g70
NtRp1490
(dp1491
g73
(dp1492
g93
g94
ssg82
g1486
sg75
(lp1493
S'wsgi_errors'
p1494
asbag68
(g89
g70
NtRp1495
(dp1496
g73
(dp1497
g100
g101
ssg82
g1486
sg75
(lp1498
S':'
asbag68
(g89
g70
NtRp1499
(dp1500
g73
(dp1501
sg82
g1486
sg75
(lp1502
g68
(g69
g70
NtRp1503
(dp1504
g73
(dp1505
g81
I4
ssg82
g1499
sg75
(lp1506
S"<open file '<stderr>', mode 'w' at 0x7f8f996281e0>"
p1507
asbasbasbag68
(g84
g70
NtRp1508
(dp1509
g73
(dp1510
sg82
g846
sg75
(lp1511
g68
(g89
g70
NtRp1512
(dp1513
g73
(dp1514
g93
g94
ssg82
g1508
sg75
(lp1515
S'wsgi_file_wrapper'
p1516
asbag68
(g89
g70
NtRp1517
(dp1518
g73
(dp1519
g100
g101
ssg82
g1508
sg75
(lp1520
S':'
asbag68
(g89
g70
NtRp1521
(dp1522
g73
(dp1523
sg82
g1508
sg75
(lp1524
g68
(g69
g70
NtRp1525
(dp1526
g73
(dp1527
g81
I4
ssg82
g1521
sg75
(lp1528
S'<class gluon.rocket.FileWrapper at 0x27e07d0>'
p1529
asbasbasbag68
(g84
g70
NtRp1530
(dp1531
g73
(dp1532
sg82
g846
sg75
(lp1533
g68
(g89
g70
NtRp1534
(dp1535
g73
(dp1536
g93
g94
ssg82
g1530
sg75
(lp1537
S'wsgi_input'
p1538
asbag68
(g89
g70
NtRp1539
(dp1540
g73
(dp1541
g100
g101
ssg82
g1530
sg75
(lp1542
S':'
asbag68
(g89
g70
NtRp1543
(dp1544
g73
(dp1545
sg82
g1530
sg75
(lp1546
g68
(g69
g70
NtRp1547
(dp1548
g73
(dp1549
g81
I4
ssg82
g1543
sg75
(lp1550
S'<socket._fileobject object at 0x2d7b9d0>'
p1551
asbasbasbag68
(g84
g70
NtRp1552
(dp1553
g73
(dp1554
sg82
g846
sg75
(lp1555
g68
(g89
g70
NtRp1556
(dp1557
g73
(dp1558
g93
g94
ssg82
g1552
sg75
(lp1559
S'wsgi_multiprocess'
p1560
asbag68
(g89
g70
NtRp1561
(dp1562
g73
(dp1563
g100
g101
ssg82
g1552
sg75
(lp1564
S':'
asbag68
(g89
g70
NtRp1565
(dp1566
g73
(dp1567
sg82
g1552
sg75
(lp1568
g68
(g69
g70
NtRp1569
(dp1570
g73
(dp1571
g81
I4
ssg82
g1565
sg75
(lp1572
g111
asbasbasbag68
(g84
g70
NtRp1573
(dp1574
g73
(dp1575
sg82
g846
sg75
(lp1576
g68
(g89
g70
NtRp1577
(dp1578
g73
(dp1579
g93
g94
ssg82
g1573
sg75
(lp1580
S'wsgi_multithread'
p1581
asbag68
(g89
g70
NtRp1582
(dp1583
g73
(dp1584
g100
g101
ssg82
g1573
sg75
(lp1585
S':'
asbag68
(g89
g70
NtRp1586
(dp1587
g73
(dp1588
sg82
g1573
sg75
(lp1589
g68
(g69
g70
NtRp1590
(dp1591
g73
(dp1592
g81
I4
ssg82
g1586
sg75
(lp1593
S'True'
p1594
asbasbasbag68
(g84
g70
NtRp1595
(dp1596
g73
(dp1597
sg82
g846
sg75
(lp1598
g68
(g89
g70
NtRp1599
(dp1600
g73
(dp1601
g93
g94
ssg82
g1595
sg75
(lp1602
S'wsgi_run_once'
p1603
asbag68
(g89
g70
NtRp1604
(dp1605
g73
(dp1606
g100
g101
ssg82
g1595
sg75
(lp1607
S':'
asbag68
(g89
g70
NtRp1608
(dp1609
g73
(dp1610
sg82
g1595
sg75
(lp1611
g68
(g69
g70
NtRp1612
(dp1613
g73
(dp1614
g81
I4
ssg82
g1608
sg75
(lp1615
g111
asbasbasbag68
(g84
g70
NtRp1616
(dp1617
g73
(dp1618
sg82
g846
sg75
(lp1619
g68
(g89
g70
NtRp1620
(dp1621
g73
(dp1622
g93
g94
ssg82
g1616
sg75
(lp1623
S'wsgi_url_scheme'
p1624
asbag68
(g89
g70
NtRp1625
(dp1626
g73
(dp1627
g100
g101
ssg82
g1616
sg75
(lp1628
S':'
asbag68
(g89
g70
NtRp1629
(dp1630
g73
(dp1631
sg82
g1616
sg75
(lp1632
g68
(g69
g70
NtRp1633
(dp1634
g73
(dp1635
g81
I4
ssg82
g1629
sg75
(lp1636
S'http'
p1637
asbasbasbag68
(g84
g70
NtRp1638
(dp1639
g73
(dp1640
sg82
g846
sg75
(lp1641
g68
(g89
g70
NtRp1642
(dp1643
g73
(dp1644
g93
g94
ssg82
g1638
sg75
(lp1645
S'wsgi_version'
p1646
asbag68
(g89
g70
NtRp1647
(dp1648
g73
(dp1649
g100
g101
ssg82
g1638
sg75
(lp1650
S':'
asbag68
(g89
g70
NtRp1651
(dp1652
g73
(dp1653
sg82
g1638
sg75
(lp1654
g68
(g69
g70
NtRp1655
(dp1656
g73
(dp1657
g81
I4
ssg82
g1651
sg75
(lp1658
g68
(g77
g70
NtRp1659
(dp1660
g73
(dp1661
g81
I3
ssg82
Nsg75
(lp1662
g68
(g84
g70
NtRp1663
(dp1664
g73
(dp1665
sg82
g1659
sg75
(lp1666
g68
(g89
g70
NtRp1667
(dp1668
g73
(dp1669
sg82
g1663
sg75
(lp1670
g68
(g69
g70
NtRp1671
(dp1672
g73
(dp1673
g81
I3
ssg82
g1667
sg75
(lp1674
S'1'
asbasbasbag68
(g84
g70
NtRp1675
(dp1676
g73
(dp1677
sg82
g1659
sg75
(lp1678
g68
(g89
g70
NtRp1679
(dp1680
g73
(dp1681
sg82
g1675
sg75
(lp1682
g68
(g69
g70
NtRp1683
(dp1684
g73
(dp1685
g81
I3
ssg82
g1679
sg75
(lp1686
S'0'
asbasbasbasbasbasbasbasbasbasbasbag68
(g84
g70
NtRp1687
(dp1688
g73
(dp1689
sg82
g78
sg75
(lp1690
g68
(g89
g70
NtRp1691
(dp1692
g73
(dp1693
g93
g94
ssg82
g1687
sg75
(lp1694
S'extension'
p1695
asbag68
(g89
g70
NtRp1696
(dp1697
g73
(dp1698
g100
g101
ssg82
g1687
sg75
(lp1699
S':'
asbag68
(g89
g70
NtRp1700
(dp1701
g73
(dp1702
sg82
g1687
sg75
(lp1703
g68
(g69
g70
NtRp1704
(dp1705
g73
(dp1706
g81
I5
ssg82
g1700
sg75
(lp1707
S'html'
p1708
asbasbasbag68
(g84
g70
NtRp1709
(dp1710
g73
(dp1711
sg82
g78
sg75
(lp1712
g68
(g89
g70
NtRp1713
(dp1714
g73
(dp1715
g93
g94
ssg82
g1709
sg75
(lp1716
S'folder'
p1717
asbag68
(g89
g70
NtRp1718
(dp1719
g73
(dp1720
g100
g101
ssg82
g1709
sg75
(lp1721
S':'
asbag68
(g89
g70
NtRp1722
(dp1723
g73
(dp1724
sg82
g1709
sg75
(lp1725
g68
(g69
g70
NtRp1726
(dp1727
g73
(dp1728
g81
I5
ssg82
g1722
sg75
(lp1729
S'/home/diazluis2007/web2py/applications/scec/'
p1730
asbasbasbag68
(g84
g70
NtRp1731
(dp1732
g73
(dp1733
sg82
g78
sg75
(lp1734
g68
(g89
g70
NtRp1735
(dp1736
g73
(dp1737
g93
g94
ssg82
g1731
sg75
(lp1738
S'function'
p1739
asbag68
(g89
g70
NtRp1740
(dp1741
g73
(dp1742
g100
g101
ssg82
g1731
sg75
(lp1743
S':'
asbag68
(g89
g70
NtRp1744
(dp1745
g73
(dp1746
sg82
g1731
sg75
(lp1747
g68
(g69
g70
NtRp1748
(dp1749
g73
(dp1750
g81
I5
ssg82
g1744
sg75
(lp1751
S'user'
p1752
asbasbasbag68
(g84
g70
NtRp1753
(dp1754
g73
(dp1755
sg82
g78
sg75
(lp1756
g68
(g89
g70
NtRp1757
(dp1758
g73
(dp1759
g93
g94
ssg82
g1753
sg75
(lp1760
S'get_vars'
p1761
asbag68
(g89
g70
NtRp1762
(dp1763
g73
(dp1764
g100
g101
ssg82
g1753
sg75
(lp1765
S':'
asbag68
(g89
g70
NtRp1766
(dp1767
g73
(dp1768
sg82
g1753
sg75
(lp1769
g68
(g69
g70
NtRp1770
(dp1771
g73
(dp1772
g81
I5
ssg82
g1766
sg75
(lp1773
g68
(g77
g70
NtRp1774
(dp1775
g73
(dp1776
g81
I4
ssg82
Nsg75
(lp1777
sbasbasbasbag68
(g84
g70
NtRp1778
(dp1779
g73
(dp1780
sg82
g78
sg75
(lp1781
g68
(g89
g70
NtRp1782
(dp1783
g73
(dp1784
g93
g94
ssg82
g1778
sg75
(lp1785
S'is_https'
p1786
asbag68
(g89
g70
NtRp1787
(dp1788
g73
(dp1789
g100
g101
ssg82
g1778
sg75
(lp1790
S':'
asbag68
(g89
g70
NtRp1791
(dp1792
g73
(dp1793
sg82
g1778
sg75
(lp1794
g68
(g69
g70
NtRp1795
(dp1796
g73
(dp1797
g81
I5
ssg82
g1791
sg75
(lp1798
g111
asbasbasbag68
(g84
g70
NtRp1799
(dp1800
g73
(dp1801
sg82
g78
sg75
(lp1802
g68
(g89
g70
NtRp1803
(dp1804
g73
(dp1805
g93
g94
ssg82
g1799
sg75
(lp1806
S'is_local'
p1807
asbag68
(g89
g70
NtRp1808
(dp1809
g73
(dp1810
g100
g101
ssg82
g1799
sg75
(lp1811
S':'
asbag68
(g89
g70
NtRp1812
(dp1813
g73
(dp1814
sg82
g1799
sg75
(lp1815
g68
(g69
g70
NtRp1816
(dp1817
g73
(dp1818
g81
I5
ssg82
g1812
sg75
(lp1819
g1594
asbasbasbag68
(g84
g70
NtRp1820
(dp1821
g73
(dp1822
sg82
g78
sg75
(lp1823
g68
(g89
g70
NtRp1824
(dp1825
g73
(dp1826
g93
g94
ssg82
g1820
sg75
(lp1827
S'is_restful'
p1828
asbag68
(g89
g70
NtRp1829
(dp1830
g73
(dp1831
g100
g101
ssg82
g1820
sg75
(lp1832
S':'
asbag68
(g89
g70
NtRp1833
(dp1834
g73
(dp1835
sg82
g1820
sg75
(lp1836
g68
(g69
g70
NtRp1837
(dp1838
g73
(dp1839
g81
I5
ssg82
g1833
sg75
(lp1840
g111
asbasbasbag68
(g84
g70
NtRp1841
(dp1842
g73
(dp1843
sg82
g78
sg75
(lp1844
g68
(g89
g70
NtRp1845
(dp1846
g73
(dp1847
g93
g94
ssg82
g1841
sg75
(lp1848
S'now'
p1849
asbag68
(g89
g70
NtRp1850
(dp1851
g73
(dp1852
g100
g101
ssg82
g1841
sg75
(lp1853
S':'
asbag68
(g89
g70
NtRp1854
(dp1855
g73
(dp1856
sg82
g1841
sg75
(lp1857
g68
(g69
g70
NtRp1858
(dp1859
g73
(dp1860
g81
I5
ssg82
g1854
sg75
(lp1861
S'datetime.datetime(2011, 7, 31, 2, 23, 12, 472278)'
p1862
asbasbasbag68
(g84
g70
NtRp1863
(dp1864
g73
(dp1865
sg82
g78
sg75
(lp1866
g68
(g89
g70
NtRp1867
(dp1868
g73
(dp1869
g93
g94
ssg82
g1863
sg75
(lp1870
S'post_vars'
p1871
asbag68
(g89
g70
NtRp1872
(dp1873
g73
(dp1874
g100
g101
ssg82
g1863
sg75
(lp1875
S':'
asbag68
(g89
g70
NtRp1876
(dp1877
g73
(dp1878
sg82
g1863
sg75
(lp1879
g68
(g69
g70
NtRp1880
(dp1881
g73
(dp1882
g81
I5
ssg82
g1876
sg75
(lp1883
g68
(g77
g70
NtRp1884
(dp1885
g73
(dp1886
g81
I4
ssg82
Nsg75
(lp1887
sbasbasbasbag68
(g84
g70
NtRp1888
(dp1889
g73
(dp1890
sg82
g78
sg75
(lp1891
g68
(g89
g70
NtRp1892
(dp1893
g73
(dp1894
g93
g94
ssg82
g1888
sg75
(lp1895
S'raw_args'
p1896
asbag68
(g89
g70
NtRp1897
(dp1898
g73
(dp1899
g100
g101
ssg82
g1888
sg75
(lp1900
S':'
asbag68
(g89
g70
NtRp1901
(dp1902
g73
(dp1903
sg82
g1888
sg75
(lp1904
g68
(g69
g70
NtRp1905
(dp1906
g73
(dp1907
g81
I5
ssg82
g1901
sg75
(lp1908
g170
asbasbasbag68
(g84
g70
NtRp1909
(dp1910
g73
(dp1911
sg82
g78
sg75
(lp1912
g68
(g89
g70
NtRp1913
(dp1914
g73
(dp1915
g93
g94
ssg82
g1909
sg75
(lp1916
S'url'
p1917
asbag68
(g89
g70
NtRp1918
(dp1919
g73
(dp1920
g100
g101
ssg82
g1909
sg75
(lp1921
S':'
asbag68
(g89
g70
NtRp1922
(dp1923
g73
(dp1924
sg82
g1909
sg75
(lp1925
g68
(g69
g70
NtRp1926
(dp1927
g73
(dp1928
g81
I5
ssg82
g1922
sg75
(lp1929
S'/scec/default/user/profile'
p1930
asbasbasbag68
(g84
g70
NtRp1931
(dp1932
g73
(dp1933
sg82
g78
sg75
(lp1934
g68
(g89
g70
NtRp1935
(dp1936
g73
(dp1937
g93
g94
ssg82
g1931
sg75
(lp1938
S'uuid'
p1939
asbag68
(g89
g70
NtRp1940
(dp1941
g73
(dp1942
g100
g101
ssg82
g1931
sg75
(lp1943
S':'
asbag68
(g89
g70
NtRp1944
(dp1945
g73
(dp1946
sg82
g1931
sg75
(lp1947
g68
(g69
g70
NtRp1948
(dp1949
g73
(dp1950
g81
I5
ssg82
g1944
sg75
(lp1951
S'scec/127.0.0.1.2011-07-31.02-23-12.3fa495b5-0e4a-42bf-a7d8-e861abea51bb'
p1952
asbasbasbag68
(g84
g70
NtRp1953
(dp1954
g73
(dp1955
sg82
g78
sg75
(lp1956
g68
(g89
g70
NtRp1957
(dp1958
g73
(dp1959
g93
g94
ssg82
g1953
sg75
(lp1960
S'vars'
p1961
asbag68
(g89
g70
NtRp1962
(dp1963
g73
(dp1964
g100
g101
ssg82
g1953
sg75
(lp1965
S':'
asbag68
(g89
g70
NtRp1966
(dp1967
g73
(dp1968
sg82
g1953
sg75
(lp1969
g68
(g69
g70
NtRp1970
(dp1971
g73
(dp1972
g81
I5
ssg82
g1966
sg75
(lp1973
g68
(g77
g70
NtRp1974
(dp1975
g73
(dp1976
g81
I4
ssg82
Nsg75
(lp1977
sbasbasbasbag68
(g84
g70
NtRp1978
(dp1979
g73
(dp1980
sg82
g78
sg75
(lp1981
g68
(g89
g70
NtRp1982
(dp1983
g73
(dp1984
g93
g94
ssg82
g1978
sg75
(lp1985
S'wsgi'
p1986
asbag68
(g89
g70
NtRp1987
(dp1988
g73
(dp1989
g100
g101
ssg82
g1978
sg75
(lp1990
S':'
asbag68
(g89
g70
NtRp1991
(dp1992
g73
(dp1993
sg82
g1978
sg75
(lp1994
g68
(g69
g70
NtRp1995
(dp1996
g73
(dp1997
g81
I5
ssg82
g1991
sg75
(lp1998
g68
(g77
g70
NtRp1999
(dp2000
g73
(dp2001
g81
I4
ssg82
Nsg75
(lp2002
g68
(g84
g70
NtRp2003
(dp2004
g73
(dp2005
sg82
g1999
sg75
(lp2006
g68
(g89
g70
NtRp2007
(dp2008
g73
(dp2009
g93
g94
ssg82
g2003
sg75
(lp2010
S'environ'
p2011
asbag68
(g89
g70
NtRp2012
(dp2013
g73
(dp2014
g100
g101
ssg82
g2003
sg75
(lp2015
S':'
asbag68
(g89
g70
NtRp2016
(dp2017
g73
(dp2018
sg82
g2003
sg75
(lp2019
g68
(g69
g70
NtRp2020
(dp2021
g73
(dp2022
g81
I4
ssg82
g2016
sg75
(lp2023
g68
(g77
g70
NtRp2024
(dp2025
g73
(dp2026
g81
I3
ssg82
Nsg75
(lp2027
g68
(g84
g70
NtRp2028
(dp2029
g73
(dp2030
sg82
g2024
sg75
(lp2031
g68
(g89
g70
NtRp2032
(dp2033
g73
(dp2034
g93
g94
ssg82
g2028
sg75
(lp2035
S'HTTP_ACCEPT'
p2036
asbag68
(g89
g70
NtRp2037
(dp2038
g73
(dp2039
g100
g101
ssg82
g2028
sg75
(lp2040
S':'
asbag68
(g89
g70
NtRp2041
(dp2042
g73
(dp2043
sg82
g2028
sg75
(lp2044
g68
(g69
g70
NtRp2045
(dp2046
g73
(dp2047
g81
I3
ssg82
g2041
sg75
(lp2048
g1027
asbasbasbag68
(g84
g70
NtRp2049
(dp2050
g73
(dp2051
sg82
g2024
sg75
(lp2052
g68
(g89
g70
NtRp2053
(dp2054
g73
(dp2055
g93
g94
ssg82
g2049
sg75
(lp2056
S'HTTP_ACCEPT_CHARSET'
p2057
asbag68
(g89
g70
NtRp2058
(dp2059
g73
(dp2060
g100
g101
ssg82
g2049
sg75
(lp2061
S':'
asbag68
(g89
g70
NtRp2062
(dp2063
g73
(dp2064
sg82
g2049
sg75
(lp2065
g68
(g69
g70
NtRp2066
(dp2067
g73
(dp2068
g81
I3
ssg82
g2062
sg75
(lp2069
g1049
asbasbasbag68
(g84
g70
NtRp2070
(dp2071
g73
(dp2072
sg82
g2024
sg75
(lp2073
g68
(g89
g70
NtRp2074
(dp2075
g73
(dp2076
g93
g94
ssg82
g2070
sg75
(lp2077
S'HTTP_ACCEPT_ENCODING'
p2078
asbag68
(g89
g70
NtRp2079
(dp2080
g73
(dp2081
g100
g101
ssg82
g2070
sg75
(lp2082
S':'
asbag68
(g89
g70
NtRp2083
(dp2084
g73
(dp2085
sg82
g2070
sg75
(lp2086
g68
(g69
g70
NtRp2087
(dp2088
g73
(dp2089
g81
I3
ssg82
g2083
sg75
(lp2090
g1071
asbasbasbag68
(g84
g70
NtRp2091
(dp2092
g73
(dp2093
sg82
g2024
sg75
(lp2094
g68
(g89
g70
NtRp2095
(dp2096
g73
(dp2097
g93
g94
ssg82
g2091
sg75
(lp2098
S'HTTP_ACCEPT_LANGUAGE'
p2099
asbag68
(g89
g70
NtRp2100
(dp2101
g73
(dp2102
g100
g101
ssg82
g2091
sg75
(lp2103
S':'
asbag68
(g89
g70
NtRp2104
(dp2105
g73
(dp2106
sg82
g2091
sg75
(lp2107
g68
(g69
g70
NtRp2108
(dp2109
g73
(dp2110
g81
I3
ssg82
g2104
sg75
(lp2111
g1093
asbasbasbag68
(g84
g70
NtRp2112
(dp2113
g73
(dp2114
sg82
g2024
sg75
(lp2115
g68
(g89
g70
NtRp2116
(dp2117
g73
(dp2118
g93
g94
ssg82
g2112
sg75
(lp2119
S'HTTP_CONNECTION'
p2120
asbag68
(g89
g70
NtRp2121
(dp2122
g73
(dp2123
g100
g101
ssg82
g2112
sg75
(lp2124
S':'
asbag68
(g89
g70
NtRp2125
(dp2126
g73
(dp2127
sg82
g2112
sg75
(lp2128
g68
(g69
g70
NtRp2129
(dp2130
g73
(dp2131
g81
I3
ssg82
g2125
sg75
(lp2132
g1115
asbasbasbag68
(g84
g70
NtRp2133
(dp2134
g73
(dp2135
sg82
g2024
sg75
(lp2136
g68
(g89
g70
NtRp2137
(dp2138
g73
(dp2139
g93
g94
ssg82
g2133
sg75
(lp2140
S'HTTP_COOKIE'
p2141
asbag68
(g89
g70
NtRp2142
(dp2143
g73
(dp2144
g100
g101
ssg82
g2133
sg75
(lp2145
S':'
asbag68
(g89
g70
NtRp2146
(dp2147
g73
(dp2148
sg82
g2133
sg75
(lp2149
g68
(g69
g70
NtRp2150
(dp2151
g73
(dp2152
g81
I3
ssg82
g2146
sg75
(lp2153
g1137
asbasbasbag68
(g84
g70
NtRp2154
(dp2155
g73
(dp2156
sg82
g2024
sg75
(lp2157
g68
(g89
g70
NtRp2158
(dp2159
g73
(dp2160
g93
g94
ssg82
g2154
sg75
(lp2161
S'HTTP_HOST'
p2162
asbag68
(g89
g70
NtRp2163
(dp2164
g73
(dp2165
g100
g101
ssg82
g2154
sg75
(lp2166
S':'
asbag68
(g89
g70
NtRp2167
(dp2168
g73
(dp2169
sg82
g2154
sg75
(lp2170
g68
(g69
g70
NtRp2171
(dp2172
g73
(dp2173
g81
I3
ssg82
g2167
sg75
(lp2174
g1159
asbasbasbag68
(g84
g70
NtRp2175
(dp2176
g73
(dp2177
sg82
g2024
sg75
(lp2178
g68
(g89
g70
NtRp2179
(dp2180
g73
(dp2181
g93
g94
ssg82
g2175
sg75
(lp2182
S'HTTP_REFERER'
p2183
asbag68
(g89
g70
NtRp2184
(dp2185
g73
(dp2186
g100
g101
ssg82
g2175
sg75
(lp2187
S':'
asbag68
(g89
g70
NtRp2188
(dp2189
g73
(dp2190
sg82
g2175
sg75
(lp2191
g68
(g69
g70
NtRp2192
(dp2193
g73
(dp2194
g81
I3
ssg82
g2188
sg75
(lp2195
g1181
asbasbasbag68
(g84
g70
NtRp2196
(dp2197
g73
(dp2198
sg82
g2024
sg75
(lp2199
g68
(g89
g70
NtRp2200
(dp2201
g73
(dp2202
g93
g94
ssg82
g2196
sg75
(lp2203
S'HTTP_USER_AGENT'
p2204
asbag68
(g89
g70
NtRp2205
(dp2206
g73
(dp2207
g100
g101
ssg82
g2196
sg75
(lp2208
S':'
asbag68
(g89
g70
NtRp2209
(dp2210
g73
(dp2211
sg82
g2196
sg75
(lp2212
g68
(g69
g70
NtRp2213
(dp2214
g73
(dp2215
g81
I3
ssg82
g2209
sg75
(lp2216
g1203
asbasbasbag68
(g84
g70
NtRp2217
(dp2218
g73
(dp2219
sg82
g2024
sg75
(lp2220
g68
(g89
g70
NtRp2221
(dp2222
g73
(dp2223
g93
g94
ssg82
g2217
sg75
(lp2224
S'PATH_INFO'
p2225
asbag68
(g89
g70
NtRp2226
(dp2227
g73
(dp2228
g100
g101
ssg82
g2217
sg75
(lp2229
S':'
asbag68
(g89
g70
NtRp2230
(dp2231
g73
(dp2232
sg82
g2217
sg75
(lp2233
g68
(g69
g70
NtRp2234
(dp2235
g73
(dp2236
g81
I3
ssg82
g2230
sg75
(lp2237
g1225
asbasbasbag68
(g84
g70
NtRp2238
(dp2239
g73
(dp2240
sg82
g2024
sg75
(lp2241
g68
(g89
g70
NtRp2242
(dp2243
g73
(dp2244
g93
g94
ssg82
g2238
sg75
(lp2245
S'QUERY_STRING'
p2246
asbag68
(g89
g70
NtRp2247
(dp2248
g73
(dp2249
g100
g101
ssg82
g2238
sg75
(lp2250
S':'
asbag68
(g89
g70
NtRp2251
(dp2252
g73
(dp2253
sg82
g2238
sg75
(lp2254
g68
(g69
g70
NtRp2255
(dp2256
g73
(dp2257
g81
I3
ssg82
g2251
sg75
(lp2258
S''
asbasbasbag68
(g84
g70
NtRp2259
(dp2260
g73
(dp2261
sg82
g2024
sg75
(lp2262
g68
(g89
g70
NtRp2263
(dp2264
g73
(dp2265
g93
g94
ssg82
g2259
sg75
(lp2266
S'REMOTE_ADDR'
p2267
asbag68
(g89
g70
NtRp2268
(dp2269
g73
(dp2270
g100
g101
ssg82
g2259
sg75
(lp2271
S':'
asbag68
(g89
g70
NtRp2272
(dp2273
g73
(dp2274
sg82
g2259
sg75
(lp2275
g68
(g69
g70
NtRp2276
(dp2277
g73
(dp2278
g81
I3
ssg82
g2272
sg75
(lp2279
g214
asbasbasbag68
(g84
g70
NtRp2280
(dp2281
g73
(dp2282
sg82
g2024
sg75
(lp2283
g68
(g89
g70
NtRp2284
(dp2285
g73
(dp2286
g93
g94
ssg82
g2280
sg75
(lp2287
S'REMOTE_PORT'
p2288
asbag68
(g89
g70
NtRp2289
(dp2290
g73
(dp2291
g100
g101
ssg82
g2280
sg75
(lp2292
S':'
asbag68
(g89
g70
NtRp2293
(dp2294
g73
(dp2295
sg82
g2280
sg75
(lp2296
g68
(g69
g70
NtRp2297
(dp2298
g73
(dp2299
g81
I3
ssg82
g2293
sg75
(lp2300
g1289
asbasbasbag68
(g84
g70
NtRp2301
(dp2302
g73
(dp2303
sg82
g2024
sg75
(lp2304
g68
(g89
g70
NtRp2305
(dp2306
g73
(dp2307
g93
g94
ssg82
g2301
sg75
(lp2308
S'REQUEST_METHOD'
p2309
asbag68
(g89
g70
NtRp2310
(dp2311
g73
(dp2312
g100
g101
ssg82
g2301
sg75
(lp2313
S':'
asbag68
(g89
g70
NtRp2314
(dp2315
g73
(dp2316
sg82
g2301
sg75
(lp2317
g68
(g69
g70
NtRp2318
(dp2319
g73
(dp2320
g81
I3
ssg82
g2314
sg75
(lp2321
g1311
asbasbasbag68
(g84
g70
NtRp2322
(dp2323
g73
(dp2324
sg82
g2024
sg75
(lp2325
g68
(g89
g70
NtRp2326
(dp2327
g73
(dp2328
g93
g94
ssg82
g2322
sg75
(lp2329
S'SCRIPT_NAME'
p2330
asbag68
(g89
g70
NtRp2331
(dp2332
g73
(dp2333
g100
g101
ssg82
g2322
sg75
(lp2334
S':'
asbag68
(g89
g70
NtRp2335
(dp2336
g73
(dp2337
sg82
g2322
sg75
(lp2338
g68
(g69
g70
NtRp2339
(dp2340
g73
(dp2341
g81
I3
ssg82
g2335
sg75
(lp2342
S''
asbasbasbag68
(g84
g70
NtRp2343
(dp2344
g73
(dp2345
sg82
g2024
sg75
(lp2346
g68
(g89
g70
NtRp2347
(dp2348
g73
(dp2349
g93
g94
ssg82
g2343
sg75
(lp2350
S'SERVER_NAME'
p2351
asbag68
(g89
g70
NtRp2352
(dp2353
g73
(dp2354
g100
g101
ssg82
g2343
sg75
(lp2355
S':'
asbag68
(g89
g70
NtRp2356
(dp2357
g73
(dp2358
sg82
g2343
sg75
(lp2359
g68
(g69
g70
NtRp2360
(dp2361
g73
(dp2362
g81
I3
ssg82
g2356
sg75
(lp2363
g1354
asbasbasbag68
(g84
g70
NtRp2364
(dp2365
g73
(dp2366
sg82
g2024
sg75
(lp2367
g68
(g89
g70
NtRp2368
(dp2369
g73
(dp2370
g93
g94
ssg82
g2364
sg75
(lp2371
S'SERVER_PORT'
p2372
asbag68
(g89
g70
NtRp2373
(dp2374
g73
(dp2375
g100
g101
ssg82
g2364
sg75
(lp2376
S':'
asbag68
(g89
g70
NtRp2377
(dp2378
g73
(dp2379
sg82
g2364
sg75
(lp2380
g68
(g69
g70
NtRp2381
(dp2382
g73
(dp2383
g81
I3
ssg82
g2377
sg75
(lp2384
g1376
asbasbasbag68
(g84
g70
NtRp2385
(dp2386
g73
(dp2387
sg82
g2024
sg75
(lp2388
g68
(g89
g70
NtRp2389
(dp2390
g73
(dp2391
g93
g94
ssg82
g2385
sg75
(lp2392
S'SERVER_PROTOCOL'
p2393
asbag68
(g89
g70
NtRp2394
(dp2395
g73
(dp2396
g100
g101
ssg82
g2385
sg75
(lp2397
S':'
asbag68
(g89
g70
NtRp2398
(dp2399
g73
(dp2400
sg82
g2385
sg75
(lp2401
g68
(g69
g70
NtRp2402
(dp2403
g73
(dp2404
g81
I3
ssg82
g2398
sg75
(lp2405
g1398
asbasbasbag68
(g84
g70
NtRp2406
(dp2407
g73
(dp2408
sg82
g2024
sg75
(lp2409
g68
(g89
g70
NtRp2410
(dp2411
g73
(dp2412
g93
g94
ssg82
g2406
sg75
(lp2413
S'SERVER_SOFTWARE'
p2414
asbag68
(g89
g70
NtRp2415
(dp2416
g73
(dp2417
g100
g101
ssg82
g2406
sg75
(lp2418
S':'
asbag68
(g89
g70
NtRp2419
(dp2420
g73
(dp2421
sg82
g2406
sg75
(lp2422
g68
(g69
g70
NtRp2423
(dp2424
g73
(dp2425
g81
I3
ssg82
g2419
sg75
(lp2426
g1420
asbasbasbag68
(g84
g70
NtRp2427
(dp2428
g73
(dp2429
sg82
g2024
sg75
(lp2430
g68
(g89
g70
NtRp2431
(dp2432
g73
(dp2433
g93
g94
ssg82
g2427
sg75
(lp2434
S'wsgi.errors'
p2435
asbag68
(g89
g70
NtRp2436
(dp2437
g73
(dp2438
g100
g101
ssg82
g2427
sg75
(lp2439
S':'
asbag68
(g89
g70
NtRp2440
(dp2441
g73
(dp2442
sg82
g2427
sg75
(lp2443
g68
(g69
g70
NtRp2444
(dp2445
g73
(dp2446
g81
I3
ssg82
g2440
sg75
(lp2447
S"<open file '<stderr>', mode 'w' at 0x7f8f996281e0>"
p2448
asbasbasbag68
(g84
g70
NtRp2449
(dp2450
g73
(dp2451
sg82
g2024
sg75
(lp2452
g68
(g89
g70
NtRp2453
(dp2454
g73
(dp2455
g93
g94
ssg82
g2449
sg75
(lp2456
S'wsgi.file_wrapper'
p2457
asbag68
(g89
g70
NtRp2458
(dp2459
g73
(dp2460
g100
g101
ssg82
g2449
sg75
(lp2461
S':'
asbag68
(g89
g70
NtRp2462
(dp2463
g73
(dp2464
sg82
g2449
sg75
(lp2465
g68
(g69
g70
NtRp2466
(dp2467
g73
(dp2468
g81
I3
ssg82
g2462
sg75
(lp2469
S'<class gluon.rocket.FileWrapper at 0x27e07d0>'
p2470
asbasbasbag68
(g84
g70
NtRp2471
(dp2472
g73
(dp2473
sg82
g2024
sg75
(lp2474
g68
(g89
g70
NtRp2475
(dp2476
g73
(dp2477
g93
g94
ssg82
g2471
sg75
(lp2478
S'wsgi.input'
p2479
asbag68
(g89
g70
NtRp2480
(dp2481
g73
(dp2482
g100
g101
ssg82
g2471
sg75
(lp2483
S':'
asbag68
(g89
g70
NtRp2484
(dp2485
g73
(dp2486
sg82
g2471
sg75
(lp2487
g68
(g69
g70
NtRp2488
(dp2489
g73
(dp2490
g81
I3
ssg82
g2484
sg75
(lp2491
S'<cStringIO.StringO object at 0x33c7b20>'
p2492
asbasbasbag68
(g84
g70
NtRp2493
(dp2494
g73
(dp2495
sg82
g2024
sg75
(lp2496
g68
(g89
g70
NtRp2497
(dp2498
g73
(dp2499
g93
g94
ssg82
g2493
sg75
(lp2500
S'wsgi.multiprocess'
p2501
asbag68
(g89
g70
NtRp2502
(dp2503
g73
(dp2504
g100
g101
ssg82
g2493
sg75
(lp2505
S':'
asbag68
(g89
g70
NtRp2506
(dp2507
g73
(dp2508
sg82
g2493
sg75
(lp2509
g68
(g69
g70
NtRp2510
(dp2511
g73
(dp2512
g81
I3
ssg82
g2506
sg75
(lp2513
g111
asbasbasbag68
(g84
g70
NtRp2514
(dp2515
g73
(dp2516
sg82
g2024
sg75
(lp2517
g68
(g89
g70
NtRp2518
(dp2519
g73
(dp2520
g93
g94
ssg82
g2514
sg75
(lp2521
S'wsgi.multithread'
p2522
asbag68
(g89
g70
NtRp2523
(dp2524
g73
(dp2525
g100
g101
ssg82
g2514
sg75
(lp2526
S':'
asbag68
(g89
g70
NtRp2527
(dp2528
g73
(dp2529
sg82
g2514
sg75
(lp2530
g68
(g69
g70
NtRp2531
(dp2532
g73
(dp2533
g81
I3
ssg82
g2527
sg75
(lp2534
g1594
asbasbasbag68
(g84
g70
NtRp2535
(dp2536
g73
(dp2537
sg82
g2024
sg75
(lp2538
g68
(g89
g70
NtRp2539
(dp2540
g73
(dp2541
g93
g94
ssg82
g2535
sg75
(lp2542
S'wsgi.run_once'
p2543
asbag68
(g89
g70
NtRp2544
(dp2545
g73
(dp2546
g100
g101
ssg82
g2535
sg75
(lp2547
S':'
asbag68
(g89
g70
NtRp2548
(dp2549
g73
(dp2550
sg82
g2535
sg75
(lp2551
g68
(g69
g70
NtRp2552
(dp2553
g73
(dp2554
g81
I3
ssg82
g2548
sg75
(lp2555
g111
asbasbasbag68
(g84
g70
NtRp2556
(dp2557
g73
(dp2558
sg82
g2024
sg75
(lp2559
g68
(g89
g70
NtRp2560
(dp2561
g73
(dp2562
g93
g94
ssg82
g2556
sg75
(lp2563
S'wsgi.url_scheme'
p2564
asbag68
(g89
g70
NtRp2565
(dp2566
g73
(dp2567
g100
g101
ssg82
g2556
sg75
(lp2568
S':'
asbag68
(g89
g70
NtRp2569
(dp2570
g73
(dp2571
sg82
g2556
sg75
(lp2572
g68
(g69
g70
NtRp2573
(dp2574
g73
(dp2575
g81
I3
ssg82
g2569
sg75
(lp2576
g1637
asbasbasbag68
(g84
g70
NtRp2577
(dp2578
g73
(dp2579
sg82
g2024
sg75
(lp2580
g68
(g89
g70
NtRp2581
(dp2582
g73
(dp2583
g93
g94
ssg82
g2577
sg75
(lp2584
S'wsgi.version'
p2585
asbag68
(g89
g70
NtRp2586
(dp2587
g73
(dp2588
g100
g101
ssg82
g2577
sg75
(lp2589
S':'
asbag68
(g89
g70
NtRp2590
(dp2591
g73
(dp2592
sg82
g2577
sg75
(lp2593
g68
(g69
g70
NtRp2594
(dp2595
g73
(dp2596
g81
I3
ssg82
g2590
sg75
(lp2597
S'1'
asbasbasbasbasbasbasbasbasbasbasbasbasbsS'frames'
p2598
(lp2599
(dp2600
S'file'
p2601
S'/home/diazluis2007/web2py/gluon/restricted.py'
p2602
sS'dump'
p2603
(dp2604
S'code'
p2605
S'"# -*- coding: utf-8 -*-\\n\\n\\n\\n\\ndb.define_table(\'per...    IS_LENGTH(minsize=10),\\n    IS_NOT_EMPTY()\\n]\\n\\n"'
p2606
sS'layer'
p2607
S"'/home/diazluis2007/web2py/applications/scec/models/1_tabla_perfil.py'"
p2608
sS'global compile2'
p2609
S'<function compile2>'
p2610
sS'ccode'
p2611
S'undefined'
p2612
ssS'lnum'
p2613
I191
sS'lines'
p2614
(dp2615
I192
S'        exec ccode in environment'
p2616
sI193
S'    except HTTP:'
p2617
sI194
S'        raise'
p2618
sI195
S'    except Exception:'
p2619
sI186
S"    environment['__file__'] = layer"
p2620
sI187
S'    try:'
p2621
sI188
S'        if type(code) == types.CodeType:'
p2622
sI189
S'            ccode = code'
p2623
sI190
S'        else:'
p2624
sI191
S'            ccode = compile2(code,layer)'
p2625
ssS'call'
p2626
S'(code="# -*- coding: utf-8 -*-\\n\\n\\n\\n\\ndb.define_table(\'per...    IS_LENGTH(minsize=10),\\n    IS_NOT_EMPTY()\\n]\\n\\n", environment={\'A\': <class \'gluon.html.A\'>, \'Auth\': <class \'gluon.tools.Auth\'>, \'B\': <class \'gluon.html.B\'>, \'BEAUTIFY\': <class \'gluon.html.BEAUTIFY\'>, \'BODY\': <class \'gluon.html.BODY\'>, \'BR\': <class \'gluon.html.BR\'>, \'BUTTON\': <class \'gluon.html.BUTTON\'>, \'CENTER\': <class \'gluon.html.CENTER\'>, \'CLEANUP\': <class \'gluon.validators.CLEANUP\'>, \'CODE\': <class \'gluon.html.CODE\'>, ...}, layer=\'/home/diazluis2007/web2py/applications/scec/models/1_tabla_perfil.py\')'
p2627
sS'func'
p2628
S'restricted'
p2629
sa(dp2630
g2601
S'/home/diazluis2007/web2py/gluon/restricted.py'
p2631
sg2603
(dp2632
S'builtincompile'
p2633
S'<built-in function compile>'
p2634
sS'code'
p2635
S'"# -*- coding: utf-8 -*-\\n\\n\\n\\n\\ndb.define_table(\'per...    IS_LENGTH(minsize=10),\\n    IS_NOT_EMPTY()\\n]\\n\\n"'
p2636
sS'code.rstrip'
p2637
S'<built-in method rstrip of str object>'
p2638
sS').replace'
p2639
g2612
sS'layer'
p2640
S"'/home/diazluis2007/web2py/applications/scec/models/1_tabla_perfil.py'"
p2641
ssg2613
I178
sg2614
(dp2642
I173
S''
sI174
S'def compile2(code,layer):'
p2643
sI175
S'    """'
p2644
sI176
S"    The +'\\n' is necessary else compile fails when code ends in a comment."
p2645
sI177
S'    """'
p2646
sI178
S"    return compile(code.rstrip().replace('\\r\\n','\\n')+'\\n', layer, 'exec')"
p2647
sI179
S''
sI180
S"def restricted(code, environment={}, layer='Unknown'):"
p2648
sI181
S'    """'
p2649
sI182
S'    runs code in environment and returns the output. if an exception occurs'
p2650
ssg2626
S'(code="# -*- coding: utf-8 -*-\\n\\n\\n\\n\\ndb.define_table(\'per...    IS_LENGTH(minsize=10),\\n    IS_NOT_EMPTY()\\n]\\n\\n", layer=\'/home/diazluis2007/web2py/applications/scec/models/1_tabla_perfil.py\')'
p2651
sg2628
S'compile2'
p2652
sasS'pyver'
p2653
S'Python 2.6.6: /usr/bin/python'
p2654
sS'session'
p2655
g68
(g69
g70
NtRp2656
(dp2657
g73
(dp2658
sg75
(lp2659
g68
(g77
g70
NtRp2660
(dp2661
g73
(dp2662
g81
I5
ssg82
Nsg75
(lp2663
g68
(g84
g70
NtRp2664
(dp2665
g73
(dp2666
sg82
g2660
sg75
(lp2667
g68
(g89
g70
NtRp2668
(dp2669
g73
(dp2670
g93
g94
ssg82
g2664
sg75
(lp2671
S'auth'
p2672
asbag68
(g89
g70
NtRp2673
(dp2674
g73
(dp2675
g100
g101
ssg82
g2664
sg75
(lp2676
S':'
asbag68
(g89
g70
NtRp2677
(dp2678
g73
(dp2679
sg82
g2664
sg75
(lp2680
g68
(g69
g70
NtRp2681
(dp2682
g73
(dp2683
g81
I5
ssg82
g2677
sg75
(lp2684
g68
(g77
g70
NtRp2685
(dp2686
g73
(dp2687
g81
I4
ssg82
Nsg75
(lp2688
g68
(g84
g70
NtRp2689
(dp2690
g73
(dp2691
sg82
g2685
sg75
(lp2692
g68
(g89
g70
NtRp2693
(dp2694
g73
(dp2695
g93
g94
ssg82
g2689
sg75
(lp2696
S'expiration'
p2697
asbag68
(g89
g70
NtRp2698
(dp2699
g73
(dp2700
g100
g101
ssg82
g2689
sg75
(lp2701
S':'
asbag68
(g89
g70
NtRp2702
(dp2703
g73
(dp2704
sg82
g2689
sg75
(lp2705
g68
(g69
g70
NtRp2706
(dp2707
g73
(dp2708
g81
I4
ssg82
g2702
sg75
(lp2709
S'3600'
p2710
asbasbasbag68
(g84
g70
NtRp2711
(dp2712
g73
(dp2713
sg82
g2685
sg75
(lp2714
g68
(g89
g70
NtRp2715
(dp2716
g73
(dp2717
g93
g94
ssg82
g2711
sg75
(lp2718
S'hmac_key'
p2719
asbag68
(g89
g70
NtRp2720
(dp2721
g73
(dp2722
g100
g101
ssg82
g2711
sg75
(lp2723
S':'
asbag68
(g89
g70
NtRp2724
(dp2725
g73
(dp2726
sg82
g2711
sg75
(lp2727
g68
(g69
g70
NtRp2728
(dp2729
g73
(dp2730
g81
I4
ssg82
g2724
sg75
(lp2731
S'786ab664-286f-4cc2-b522-0ee3617da626'
p2732
asbasbasbag68
(g84
g70
NtRp2733
(dp2734
g73
(dp2735
sg82
g2685
sg75
(lp2736
g68
(g89
g70
NtRp2737
(dp2738
g73
(dp2739
g93
g94
ssg82
g2733
sg75
(lp2740
S'last_visit'
p2741
asbag68
(g89
g70
NtRp2742
(dp2743
g73
(dp2744
g100
g101
ssg82
g2733
sg75
(lp2745
S':'
asbag68
(g89
g70
NtRp2746
(dp2747
g73
(dp2748
sg82
g2733
sg75
(lp2749
g68
(g69
g70
NtRp2750
(dp2751
g73
(dp2752
g81
I4
ssg82
g2746
sg75
(lp2753
S'datetime.datetime(2011, 7, 31, 2, 18, 5, 287032)'
p2754
asbasbasbag68
(g84
g70
NtRp2755
(dp2756
g73
(dp2757
sg82
g2685
sg75
(lp2758
g68
(g89
g70
NtRp2759
(dp2760
g73
(dp2761
g93
g94
ssg82
g2755
sg75
(lp2762
S'user'
p2763
asbag68
(g89
g70
NtRp2764
(dp2765
g73
(dp2766
g100
g101
ssg82
g2755
sg75
(lp2767
S':'
asbag68
(g89
g70
NtRp2768
(dp2769
g73
(dp2770
sg82
g2755
sg75
(lp2771
g68
(g69
g70
NtRp2772
(dp2773
g73
(dp2774
g81
I4
ssg82
g2768
sg75
(lp2775
g68
(g77
g70
NtRp2776
(dp2777
g73
(dp2778
g81
I3
ssg82
Nsg75
(lp2779
g68
(g84
g70
NtRp2780
(dp2781
g73
(dp2782
sg82
g2776
sg75
(lp2783
g68
(g89
g70
NtRp2784
(dp2785
g73
(dp2786
g93
g94
ssg82
g2780
sg75
(lp2787
S'email'
p2788
asbag68
(g89
g70
NtRp2789
(dp2790
g73
(dp2791
g100
g101
ssg82
g2780
sg75
(lp2792
S':'
asbag68
(g89
g70
NtRp2793
(dp2794
g73
(dp2795
sg82
g2780
sg75
(lp2796
g68
(g69
g70
NtRp2797
(dp2798
g73
(dp2799
g81
I3
ssg82
g2793
sg75
(lp2800
S'diazluis2007@gmail.com'
p2801
asbasbasbag68
(g84
g70
NtRp2802
(dp2803
g73
(dp2804
sg82
g2776
sg75
(lp2805
g68
(g89
g70
NtRp2806
(dp2807
g73
(dp2808
g93
g94
ssg82
g2802
sg75
(lp2809
S'first_name'
p2810
asbag68
(g89
g70
NtRp2811
(dp2812
g73
(dp2813
g100
g101
ssg82
g2802
sg75
(lp2814
S':'
asbag68
(g89
g70
NtRp2815
(dp2816
g73
(dp2817
sg82
g2802
sg75
(lp2818
g68
(g69
g70
NtRp2819
(dp2820
g73
(dp2821
g81
I3
ssg82
g2815
sg75
(lp2822
S''
asbasbasbag68
(g84
g70
NtRp2823
(dp2824
g73
(dp2825
sg82
g2776
sg75
(lp2826
g68
(g89
g70
NtRp2827
(dp2828
g73
(dp2829
g93
g94
ssg82
g2823
sg75
(lp2830
S'id'
p2831
asbag68
(g89
g70
NtRp2832
(dp2833
g73
(dp2834
g100
g101
ssg82
g2823
sg75
(lp2835
S':'
asbag68
(g89
g70
NtRp2836
(dp2837
g73
(dp2838
sg82
g2823
sg75
(lp2839
g68
(g69
g70
NtRp2840
(dp2841
g73
(dp2842
g81
I3
ssg82
g2836
sg75
(lp2843
S'1'
asbasbasbag68
(g84
g70
NtRp2844
(dp2845
g73
(dp2846
sg82
g2776
sg75
(lp2847
g68
(g89
g70
NtRp2848
(dp2849
g73
(dp2850
g93
g94
ssg82
g2844
sg75
(lp2851
S'last_name'
p2852
asbag68
(g89
g70
NtRp2853
(dp2854
g73
(dp2855
g100
g101
ssg82
g2844
sg75
(lp2856
S':'
asbag68
(g89
g70
NtRp2857
(dp2858
g73
(dp2859
sg82
g2844
sg75
(lp2860
g68
(g69
g70
NtRp2861
(dp2862
g73
(dp2863
g81
I3
ssg82
g2857
sg75
(lp2864
S''
asbasbasbag68
(g84
g70
NtRp2865
(dp2866
g73
(dp2867
sg82
g2776
sg75
(lp2868
g68
(g89
g70
NtRp2869
(dp2870
g73
(dp2871
g93
g94
ssg82
g2865
sg75
(lp2872
S'password'
p2873
asbag68
(g89
g70
NtRp2874
(dp2875
g73
(dp2876
g100
g101
ssg82
g2865
sg75
(lp2877
S':'
asbag68
(g89
g70
NtRp2878
(dp2879
g73
(dp2880
sg82
g2865
sg75
(lp2881
g68
(g69
g70
NtRp2882
(dp2883
g73
(dp2884
g81
I3
ssg82
g2878
sg75
(lp2885
S'd7e7ad2fb709c8d0c32c3bb067aebbb4'
p2886
asbasbasbag68
(g84
g70
NtRp2887
(dp2888
g73
(dp2889
sg82
g2776
sg75
(lp2890
g68
(g89
g70
NtRp2891
(dp2892
g73
(dp2893
g93
g94
ssg82
g2887
sg75
(lp2894
S'registration_key'
p2895
asbag68
(g89
g70
NtRp2896
(dp2897
g73
(dp2898
g100
g101
ssg82
g2887
sg75
(lp2899
S':'
asbag68
(g89
g70
NtRp2900
(dp2901
g73
(dp2902
sg82
g2887
sg75
(lp2903
g68
(g69
g70
NtRp2904
(dp2905
g73
(dp2906
g81
I3
ssg82
g2900
sg75
(lp2907
S''
asbasbasbag68
(g84
g70
NtRp2908
(dp2909
g73
(dp2910
sg82
g2776
sg75
(lp2911
g68
(g89
g70
NtRp2912
(dp2913
g73
(dp2914
g93
g94
ssg82
g2908
sg75
(lp2915
S'reset_password_key'
p2916
asbag68
(g89
g70
NtRp2917
(dp2918
g73
(dp2919
g100
g101
ssg82
g2908
sg75
(lp2920
S':'
asbag68
(g89
g70
NtRp2921
(dp2922
g73
(dp2923
sg82
g2908
sg75
(lp2924
g68
(g69
g70
NtRp2925
(dp2926
g73
(dp2927
g81
I3
ssg82
g2921
sg75
(lp2928
S''
asbasbasbasbasbasbasbasbasbasbasbag68
(g84
g70
NtRp2929
(dp2930
g73
(dp2931
sg82
g2660
sg75
(lp2932
g68
(g89
g70
NtRp2933
(dp2934
g73
(dp2935
g93
g94
ssg82
g2929
sg75
(lp2936
S'last_query'
p2937
asbag68
(g89
g70
NtRp2938
(dp2939
g73
(dp2940
g100
g101
ssg82
g2929
sg75
(lp2941
S':'
asbag68
(g89
g70
NtRp2942
(dp2943
g73
(dp2944
sg82
g2929
sg75
(lp2945
g68
(g69
g70
NtRp2946
(dp2947
g73
(dp2948
g81
I5
ssg82
g2942
sg75
(lp2949
S'db.pais.id>0'
p2950
asbasbasbasbasbsS'etype'
p2951
S"<type 'exceptions.SyntaxError'>"
p2952
sS'date'
p2953
S'Sun Jul 31 02:23:12 2011'
p2954
sS'response'
p2955
g68
(g69
g70
NtRp2956
(dp2957
g73
(dp2958
sg75
(lp2959
g68
(g77
g70
NtRp2960
(dp2961
g73
(dp2962
g81
I5
ssg82
Nsg75
(lp2963
g68
(g84
g70
NtRp2964
(dp2965
g73
(dp2966
sg82
g2960
sg75
(lp2967
g68
(g89
g70
NtRp2968
(dp2969
g73
(dp2970
g93
g94
ssg82
g2964
sg75
(lp2971
g179
asbag68
(g89
g70
NtRp2972
(dp2973
g73
(dp2974
g100
g101
ssg82
g2964
sg75
(lp2975
S':'
asbag68
(g89
g70
NtRp2976
(dp2977
g73
(dp2978
sg82
g2964
sg75
(lp2979
g68
(g69
g70
NtRp2980
(dp2981
g73
(dp2982
g81
I5
ssg82
g2976
sg75
(lp2983
S'<cStringIO.StringO object at 0x3787fb8>'
p2984
asbasbasbag68
(g84
g70
NtRp2985
(dp2986
g73
(dp2987
sg82
g2960
sg75
(lp2988
g68
(g89
g70
NtRp2989
(dp2990
g73
(dp2991
g93
g94
ssg82
g2985
sg75
(lp2992
g245
asbag68
(g89
g70
NtRp2993
(dp2994
g73
(dp2995
g100
g101
ssg82
g2985
sg75
(lp2996
S':'
asbag68
(g89
g70
NtRp2997
(dp2998
g73
(dp2999
sg82
g2985
sg75
(lp3000
g68
(g69
g70
NtRp3001
(dp3002
g73
(dp3003
g81
I5
ssg82
g2997
sg75
(lp3004
g68
(g77
g70
NtRp3005
(dp3006
g73
(dp3007
g81
I4
ssg82
Nsg75
(lp3008
g68
(g84
g70
NtRp3009
(dp3010
g73
(dp3011
sg82
g3005
sg75
(lp3012
g68
(g89
g70
NtRp3013
(dp3014
g73
(dp3015
g93
g94
ssg82
g3009
sg75
(lp3016
S'session_id_scec'
p3017
asbag68
(g89
g70
NtRp3018
(dp3019
g73
(dp3020
g100
g101
ssg82
g3009
sg75
(lp3021
S':'
asbag68
(g89
g70
NtRp3022
(dp3023
g73
(dp3024
sg82
g3009
sg75
(lp3025
g68
(g69
g70
NtRp3026
(dp3027
g73
(dp3028
g81
I4
ssg82
g3022
sg75
(lp3029
g68
(g77
g70
NtRp3030
(dp3031
g73
(dp3032
g81
I3
ssg82
Nsg75
(lp3033
g68
(g84
g70
NtRp3034
(dp3035
g73
(dp3036
sg82
g3030
sg75
(lp3037
g68
(g89
g70
NtRp3038
(dp3039
g73
(dp3040
g93
g94
ssg82
g3034
sg75
(lp3041
g295
asbag68
(g89
g70
NtRp3042
(dp3043
g73
(dp3044
g100
g101
ssg82
g3034
sg75
(lp3045
S':'
asbag68
(g89
g70
NtRp3046
(dp3047
g73
(dp3048
sg82
g3034
sg75
(lp3049
g68
(g69
g70
NtRp3050
(dp3051
g73
(dp3052
g81
I3
ssg82
g3046
sg75
(lp3053
S''
asbasbasbag68
(g84
g70
NtRp3054
(dp3055
g73
(dp3056
sg82
g3030
sg75
(lp3057
g68
(g89
g70
NtRp3058
(dp3059
g73
(dp3060
g93
g94
ssg82
g3054
sg75
(lp3061
g316
asbag68
(g89
g70
NtRp3062
(dp3063
g73
(dp3064
g100
g101
ssg82
g3054
sg75
(lp3065
S':'
asbag68
(g89
g70
NtRp3066
(dp3067
g73
(dp3068
sg82
g3054
sg75
(lp3069
g68
(g69
g70
NtRp3070
(dp3071
g73
(dp3072
g81
I3
ssg82
g3066
sg75
(lp3073
S''
asbasbasbag68
(g84
g70
NtRp3074
(dp3075
g73
(dp3076
sg82
g3030
sg75
(lp3077
g68
(g89
g70
NtRp3078
(dp3079
g73
(dp3080
g93
g94
ssg82
g3074
sg75
(lp3081
g337
asbag68
(g89
g70
NtRp3082
(dp3083
g73
(dp3084
g100
g101
ssg82
g3074
sg75
(lp3085
S':'
asbag68
(g89
g70
NtRp3086
(dp3087
g73
(dp3088
sg82
g3074
sg75
(lp3089
g68
(g69
g70
NtRp3090
(dp3091
g73
(dp3092
g81
I3
ssg82
g3086
sg75
(lp3093
S''
asbasbasbag68
(g84
g70
NtRp3094
(dp3095
g73
(dp3096
sg82
g3030
sg75
(lp3097
g68
(g89
g70
NtRp3098
(dp3099
g73
(dp3100
g93
g94
ssg82
g3094
sg75
(lp3101
g358
asbag68
(g89
g70
NtRp3102
(dp3103
g73
(dp3104
g100
g101
ssg82
g3094
sg75
(lp3105
S':'
asbag68
(g89
g70
NtRp3106
(dp3107
g73
(dp3108
sg82
g3094
sg75
(lp3109
g68
(g69
g70
NtRp3110
(dp3111
g73
(dp3112
g81
I3
ssg82
g3106
sg75
(lp3113
S''
asbasbasbag68
(g84
g70
NtRp3114
(dp3115
g73
(dp3116
sg82
g3030
sg75
(lp3117
g68
(g89
g70
NtRp3118
(dp3119
g73
(dp3120
g93
g94
ssg82
g3114
sg75
(lp3121
g379
asbag68
(g89
g70
NtRp3122
(dp3123
g73
(dp3124
g100
g101
ssg82
g3114
sg75
(lp3125
S':'
asbag68
(g89
g70
NtRp3126
(dp3127
g73
(dp3128
sg82
g3114
sg75
(lp3129
g68
(g69
g70
NtRp3130
(dp3131
g73
(dp3132
g81
I3
ssg82
g3126
sg75
(lp3133
S''
asbasbasbag68
(g84
g70
NtRp3134
(dp3135
g73
(dp3136
sg82
g3030
sg75
(lp3137
g68
(g89
g70
NtRp3138
(dp3139
g73
(dp3140
g93
g94
ssg82
g3134
sg75
(lp3141
g400
asbag68
(g89
g70
NtRp3142
(dp3143
g73
(dp3144
g100
g101
ssg82
g3134
sg75
(lp3145
S':'
asbag68
(g89
g70
NtRp3146
(dp3147
g73
(dp3148
sg82
g3134
sg75
(lp3149
g68
(g69
g70
NtRp3150
(dp3151
g73
(dp3152
g81
I3
ssg82
g3146
sg75
(lp3153
S'/'
asbasbasbag68
(g84
g70
NtRp3154
(dp3155
g73
(dp3156
sg82
g3030
sg75
(lp3157
g68
(g89
g70
NtRp3158
(dp3159
g73
(dp3160
g93
g94
ssg82
g3154
sg75
(lp3161
g421
asbag68
(g89
g70
NtRp3162
(dp3163
g73
(dp3164
g100
g101
ssg82
g3154
sg75
(lp3165
S':'
asbag68
(g89
g70
NtRp3166
(dp3167
g73
(dp3168
sg82
g3154
sg75
(lp3169
g68
(g69
g70
NtRp3170
(dp3171
g73
(dp3172
g81
I3
ssg82
g3166
sg75
(lp3173
S''
asbasbasbag68
(g84
g70
NtRp3174
(dp3175
g73
(dp3176
sg82
g3030
sg75
(lp3177
g68
(g89
g70
NtRp3178
(dp3179
g73
(dp3180
g93
g94
ssg82
g3174
sg75
(lp3181
g442
asbag68
(g89
g70
NtRp3182
(dp3183
g73
(dp3184
g100
g101
ssg82
g3174
sg75
(lp3185
S':'
asbag68
(g89
g70
NtRp3186
(dp3187
g73
(dp3188
sg82
g3174
sg75
(lp3189
g68
(g69
g70
NtRp3190
(dp3191
g73
(dp3192
g81
I3
ssg82
g3186
sg75
(lp3193
S''
asbasbasbasbasbasbasbasbasbasbasbag68
(g84
g70
NtRp3194
(dp3195
g73
(dp3196
sg82
g2960
sg75
(lp3197
g68
(g89
g70
NtRp3198
(dp3199
g73
(dp3200
g93
g94
ssg82
g3194
sg75
(lp3201
S'files'
p3202
asbag68
(g89
g70
NtRp3203
(dp3204
g73
(dp3205
g100
g101
ssg82
g3194
sg75
(lp3206
S':'
asbag68
(g89
g70
NtRp3207
(dp3208
g73
(dp3209
sg82
g3194
sg75
(lp3210
g68
(g69
g70
NtRp3211
(dp3212
g73
(dp3213
g81
I5
ssg82
g3207
sg75
(lp3214
g68
(g77
g70
NtRp3215
(dp3216
g73
(dp3217
g81
I4
ssg82
Nsg75
(lp3218
sbasbasbasbag68
(g84
g70
NtRp3219
(dp3220
g73
(dp3221
sg82
g2960
sg75
(lp3222
g68
(g89
g70
NtRp3223
(dp3224
g73
(dp3225
g93
g94
ssg82
g3219
sg75
(lp3226
S'flash'
p3227
asbag68
(g89
g70
NtRp3228
(dp3229
g73
(dp3230
g100
g101
ssg82
g3219
sg75
(lp3231
S':'
asbag68
(g89
g70
NtRp3232
(dp3233
g73
(dp3234
sg82
g3219
sg75
(lp3235
g68
(g69
g70
NtRp3236
(dp3237
g73
(dp3238
g81
I5
ssg82
g3232
sg75
(lp3239
S''
asbasbasbag68
(g84
g70
NtRp3240
(dp3241
g73
(dp3242
sg82
g2960
sg75
(lp3243
g68
(g89
g70
NtRp3244
(dp3245
g73
(dp3246
g93
g94
ssg82
g3240
sg75
(lp3247
S'generic_patterns'
p3248
asbag68
(g89
g70
NtRp3249
(dp3250
g73
(dp3251
g100
g101
ssg82
g3240
sg75
(lp3252
S':'
asbag68
(g89
g70
NtRp3253
(dp3254
g73
(dp3255
sg82
g3240
sg75
(lp3256
g68
(g69
g70
NtRp3257
(dp3258
g73
(dp3259
g81
I5
ssg82
g3253
sg75
(lp3260
g68
(g77
g70
NtRp3261
(dp3262
g73
(dp3263
g81
I4
ssg82
Nsg75
(lp3264
g68
(g84
g70
NtRp3265
(dp3266
g73
(dp3267
sg82
g3261
sg75
(lp3268
g68
(g89
g70
NtRp3269
(dp3270
g73
(dp3271
sg82
g3265
sg75
(lp3272
g68
(g69
g70
NtRp3273
(dp3274
g73
(dp3275
g81
I4
ssg82
g3269
sg75
(lp3276
S'*'
asbasbasbasbasbasbasbag68
(g84
g70
NtRp3277
(dp3278
g73
(dp3279
sg82
g2960
sg75
(lp3280
g68
(g89
g70
NtRp3281
(dp3282
g73
(dp3283
g93
g94
ssg82
g3277
sg75
(lp3284
S'headers'
p3285
asbag68
(g89
g70
NtRp3286
(dp3287
g73
(dp3288
g100
g101
ssg82
g3277
sg75
(lp3289
S':'
asbag68
(g89
g70
NtRp3290
(dp3291
g73
(dp3292
sg82
g3277
sg75
(lp3293
g68
(g69
g70
NtRp3294
(dp3295
g73
(dp3296
g81
I5
ssg82
g3290
sg75
(lp3297
g68
(g77
g70
NtRp3298
(dp3299
g73
(dp3300
g81
I4
ssg82
Nsg75
(lp3301
g68
(g84
g70
NtRp3302
(dp3303
g73
(dp3304
sg82
g3298
sg75
(lp3305
g68
(g89
g70
NtRp3306
(dp3307
g73
(dp3308
g93
g94
ssg82
g3302
sg75
(lp3309
S'Cache-Control'
p3310
asbag68
(g89
g70
NtRp3311
(dp3312
g73
(dp3313
g100
g101
ssg82
g3302
sg75
(lp3314
S':'
asbag68
(g89
g70
NtRp3315
(dp3316
g73
(dp3317
sg82
g3302
sg75
(lp3318
g68
(g69
g70
NtRp3319
(dp3320
g73
(dp3321
g81
I4
ssg82
g3315
sg75
(lp3322
S'no-store, no-cache, must-revalidate, post-check=0, pre-check=0'
p3323
asbasbasbag68
(g84
g70
NtRp3324
(dp3325
g73
(dp3326
sg82
g3298
sg75
(lp3327
g68
(g89
g70
NtRp3328
(dp3329
g73
(dp3330
g93
g94
ssg82
g3324
sg75
(lp3331
S'Content-Type'
p3332
asbag68
(g89
g70
NtRp3333
(dp3334
g73
(dp3335
g100
g101
ssg82
g3324
sg75
(lp3336
S':'
asbag68
(g89
g70
NtRp3337
(dp3338
g73
(dp3339
sg82
g3324
sg75
(lp3340
g68
(g69
g70
NtRp3341
(dp3342
g73
(dp3343
g81
I4
ssg82
g3337
sg75
(lp3344
S'text/html; charset=utf-8'
p3345
asbasbasbag68
(g84
g70
NtRp3346
(dp3347
g73
(dp3348
sg82
g3298
sg75
(lp3349
g68
(g89
g70
NtRp3350
(dp3351
g73
(dp3352
g93
g94
ssg82
g3346
sg75
(lp3353
S'Expires'
p3354
asbag68
(g89
g70
NtRp3355
(dp3356
g73
(dp3357
g100
g101
ssg82
g3346
sg75
(lp3358
S':'
asbag68
(g89
g70
NtRp3359
(dp3360
g73
(dp3361
sg82
g3346
sg75
(lp3362
g68
(g69
g70
NtRp3363
(dp3364
g73
(dp3365
g81
I4
ssg82
g3359
sg75
(lp3366
S'Sun, 31 Jul 2011 06:53:12 GMT'
p3367
asbasbasbag68
(g84
g70
NtRp3368
(dp3369
g73
(dp3370
sg82
g3298
sg75
(lp3371
g68
(g89
g70
NtRp3372
(dp3373
g73
(dp3374
g93
g94
ssg82
g3368
sg75
(lp3375
S'Pragma'
p3376
asbag68
(g89
g70
NtRp3377
(dp3378
g73
(dp3379
g100
g101
ssg82
g3368
sg75
(lp3380
S':'
asbag68
(g89
g70
NtRp3381
(dp3382
g73
(dp3383
sg82
g3368
sg75
(lp3384
g68
(g69
g70
NtRp3385
(dp3386
g73
(dp3387
g81
I4
ssg82
g3381
sg75
(lp3388
S'no-cache'
p3389
asbasbasbag68
(g84
g70
NtRp3390
(dp3391
g73
(dp3392
sg82
g3298
sg75
(lp3393
g68
(g89
g70
NtRp3394
(dp3395
g73
(dp3396
g93
g94
ssg82
g3390
sg75
(lp3397
S'X-Powered-By'
p3398
asbag68
(g89
g70
NtRp3399
(dp3400
g73
(dp3401
g100
g101
ssg82
g3390
sg75
(lp3402
S':'
asbag68
(g89
g70
NtRp3403
(dp3404
g73
(dp3405
sg82
g3390
sg75
(lp3406
g68
(g69
g70
NtRp3407
(dp3408
g73
(dp3409
g81
I4
ssg82
g3403
sg75
(lp3410
S'web2py'
p3411
asbasbasbasbasbasbasbag68
(g84
g70
NtRp3412
(dp3413
g73
(dp3414
sg82
g2960
sg75
(lp3415
g68
(g89
g70
NtRp3416
(dp3417
g73
(dp3418
g93
g94
ssg82
g3412
sg75
(lp3419
S'menu'
p3420
asbag68
(g89
g70
NtRp3421
(dp3422
g73
(dp3423
g100
g101
ssg82
g3412
sg75
(lp3424
S':'
asbag68
(g89
g70
NtRp3425
(dp3426
g73
(dp3427
sg82
g3412
sg75
(lp3428
g68
(g69
g70
NtRp3429
(dp3430
g73
(dp3431
g81
I5
ssg82
g3425
sg75
(lp3432
g68
(g77
g70
NtRp3433
(dp3434
g73
(dp3435
g81
I4
ssg82
Nsg75
(lp3436
g68
(g84
g70
NtRp3437
(dp3438
g73
(dp3439
sg82
g3433
sg75
(lp3440
g68
(g89
g70
NtRp3441
(dp3442
g73
(dp3443
sg82
g3437
sg75
(lp3444
g68
(g69
g70
NtRp3445
(dp3446
g73
(dp3447
g81
I4
ssg82
g3441
sg75
(lp3448
g68
(g77
g70
NtRp3449
(dp3450
g73
(dp3451
g81
I3
ssg82
Nsg75
(lp3452
g68
(g84
g70
NtRp3453
(dp3454
g73
(dp3455
sg82
g3449
sg75
(lp3456
g68
(g89
g70
NtRp3457
(dp3458
g73
(dp3459
sg82
g3453
sg75
(lp3460
g68
(g69
g70
NtRp3461
(dp3462
g73
(dp3463
g81
I3
ssg82
g3457
sg75
(lp3464
S'Home'
p3465
asbasbasbag68
(g84
g70
NtRp3466
(dp3467
g73
(dp3468
sg82
g3449
sg75
(lp3469
g68
(g89
g70
NtRp3470
(dp3471
g73
(dp3472
sg82
g3466
sg75
(lp3473
g68
(g69
g70
NtRp3474
(dp3475
g73
(dp3476
g81
I3
ssg82
g3470
sg75
(lp3477
g111
asbasbasbag68
(g84
g70
NtRp3478
(dp3479
g73
(dp3480
sg82
g3449
sg75
(lp3481
g68
(g89
g70
NtRp3482
(dp3483
g73
(dp3484
sg82
g3478
sg75
(lp3485
g68
(g69
g70
NtRp3486
(dp3487
g73
(dp3488
g81
I3
ssg82
g3482
sg75
(lp3489
S'/scec/default/index'
p3490
asbasbasbag68
(g84
g70
NtRp3491
(dp3492
g73
(dp3493
sg82
g3449
sg75
(lp3494
g68
(g89
g70
NtRp3495
(dp3496
g73
(dp3497
sg82
g3491
sg75
(lp3498
g68
(g69
g70
NtRp3499
(dp3500
g73
(dp3501
g81
I3
ssg82
g3495
sg75
(lp3502
g68
(g77
g70
NtRp3503
(dp3504
g73
(dp3505
g81
I2
ssg82
Nsg75
(lp3506
sbasbasbasbasbasbasbasbasbasbasbasbag68
(g84
g70
NtRp3507
(dp3508
g73
(dp3509
sg82
g2960
sg75
(lp3510
g68
(g89
g70
NtRp3511
(dp3512
g73
(dp3513
g93
g94
ssg82
g3507
sg75
(lp3514
S'meta'
p3515
asbag68
(g89
g70
NtRp3516
(dp3517
g73
(dp3518
g100
g101
ssg82
g3507
sg75
(lp3519
S':'
asbag68
(g89
g70
NtRp3520
(dp3521
g73
(dp3522
sg82
g3507
sg75
(lp3523
g68
(g69
g70
NtRp3524
(dp3525
g73
(dp3526
g81
I5
ssg82
g3520
sg75
(lp3527
g68
(g77
g70
NtRp3528
(dp3529
g73
(dp3530
g81
I4
ssg82
Nsg75
(lp3531
g68
(g84
g70
NtRp3532
(dp3533
g73
(dp3534
sg82
g3528
sg75
(lp3535
g68
(g89
g70
NtRp3536
(dp3537
g73
(dp3538
g93
g94
ssg82
g3532
sg75
(lp3539
S'author'
p3540
asbag68
(g89
g70
NtRp3541
(dp3542
g73
(dp3543
g100
g101
ssg82
g3532
sg75
(lp3544
S':'
asbag68
(g89
g70
NtRp3545
(dp3546
g73
(dp3547
sg82
g3532
sg75
(lp3548
g68
(g69
g70
NtRp3549
(dp3550
g73
(dp3551
g81
I4
ssg82
g3545
sg75
(lp3552
S'Luis Diaz'
p3553
asbasbasbag68
(g84
g70
NtRp3554
(dp3555
g73
(dp3556
sg82
g3528
sg75
(lp3557
g68
(g89
g70
NtRp3558
(dp3559
g73
(dp3560
g93
g94
ssg82
g3554
sg75
(lp3561
S'copyright'
p3562
asbag68
(g89
g70
NtRp3563
(dp3564
g73
(dp3565
g100
g101
ssg82
g3554
sg75
(lp3566
S':'
asbag68
(g89
g70
NtRp3567
(dp3568
g73
(dp3569
sg82
g3554
sg75
(lp3570
g68
(g69
g70
NtRp3571
(dp3572
g73
(dp3573
g81
I4
ssg82
g3567
sg75
(lp3574
S''
asbasbasbag68
(g84
g70
NtRp3575
(dp3576
g73
(dp3577
sg82
g3528
sg75
(lp3578
g68
(g89
g70
NtRp3579
(dp3580
g73
(dp3581
g93
g94
ssg82
g3575
sg75
(lp3582
S'description'
p3583
asbag68
(g89
g70
NtRp3584
(dp3585
g73
(dp3586
g100
g101
ssg82
g3575
sg75
(lp3587
S':'
asbag68
(g89
g70
NtRp3588
(dp3589
g73
(dp3590
sg82
g3575
sg75
(lp3591
g68
(g69
g70
NtRp3592
(dp3593
g73
(dp3594
g81
I4
ssg82
g3588
sg75
(lp3595
S''
asbasbasbag68
(g84
g70
NtRp3596
(dp3597
g73
(dp3598
sg82
g3528
sg75
(lp3599
g68
(g89
g70
NtRp3600
(dp3601
g73
(dp3602
g93
g94
ssg82
g3596
sg75
(lp3603
S'generator'
p3604
asbag68
(g89
g70
NtRp3605
(dp3606
g73
(dp3607
g100
g101
ssg82
g3596
sg75
(lp3608
S':'
asbag68
(g89
g70
NtRp3609
(dp3610
g73
(dp3611
sg82
g3596
sg75
(lp3612
g68
(g69
g70
NtRp3613
(dp3614
g73
(dp3615
g81
I4
ssg82
g3609
sg75
(lp3616
S''
asbasbasbag68
(g84
g70
NtRp3617
(dp3618
g73
(dp3619
sg82
g3528
sg75
(lp3620
g68
(g89
g70
NtRp3621
(dp3622
g73
(dp3623
g93
g94
ssg82
g3617
sg75
(lp3624
S'keywords'
p3625
asbag68
(g89
g70
NtRp3626
(dp3627
g73
(dp3628
g100
g101
ssg82
g3617
sg75
(lp3629
S':'
asbag68
(g89
g70
NtRp3630
(dp3631
g73
(dp3632
sg82
g3617
sg75
(lp3633
g68
(g69
g70
NtRp3634
(dp3635
g73
(dp3636
g81
I4
ssg82
g3630
sg75
(lp3637
S''
asbasbasbasbasbasbasbag68
(g84
g70
NtRp3638
(dp3639
g73
(dp3640
sg82
g2960
sg75
(lp3641
g68
(g89
g70
NtRp3642
(dp3643
g73
(dp3644
g93
g94
ssg82
g3638
sg75
(lp3645
S'postprocessing'
p3646
asbag68
(g89
g70
NtRp3647
(dp3648
g73
(dp3649
g100
g101
ssg82
g3638
sg75
(lp3650
S':'
asbag68
(g89
g70
NtRp3651
(dp3652
g73
(dp3653
sg82
g3638
sg75
(lp3654
g68
(g69
g70
NtRp3655
(dp3656
g73
(dp3657
g81
I5
ssg82
g3651
sg75
(lp3658
g68
(g77
g70
NtRp3659
(dp3660
g73
(dp3661
g81
I4
ssg82
Nsg75
(lp3662
sbasbasbasbag68
(g84
g70
NtRp3663
(dp3664
g73
(dp3665
sg82
g2960
sg75
(lp3666
g68
(g89
g70
NtRp3667
(dp3668
g73
(dp3669
g93
g94
ssg82
g3663
sg75
(lp3670
S'session_file'
p3671
asbag68
(g89
g70
NtRp3672
(dp3673
g73
(dp3674
g100
g101
ssg82
g3663
sg75
(lp3675
S':'
asbag68
(g89
g70
NtRp3676
(dp3677
g73
(dp3678
sg82
g3663
sg75
(lp3679
g68
(g69
g70
NtRp3680
(dp3681
g73
(dp3682
g81
I5
ssg82
g3676
sg75
(lp3683
S"<open file '/home/diazluis2007/web2py/applications/scec/sessions/127.0.0.1-fca1a99d-46e6-4ae6-8243-8e73256055d7', mode 'rb+' at 0x2e85660>"
p3684
asbasbasbag68
(g84
g70
NtRp3685
(dp3686
g73
(dp3687
sg82
g2960
sg75
(lp3688
g68
(g89
g70
NtRp3689
(dp3690
g73
(dp3691
g93
g94
ssg82
g3685
sg75
(lp3692
S'session_filename'
p3693
asbag68
(g89
g70
NtRp3694
(dp3695
g73
(dp3696
g100
g101
ssg82
g3685
sg75
(lp3697
S':'
asbag68
(g89
g70
NtRp3698
(dp3699
g73
(dp3700
sg82
g3685
sg75
(lp3701
g68
(g69
g70
NtRp3702
(dp3703
g73
(dp3704
g81
I5
ssg82
g3698
sg75
(lp3705
S'/home/diazluis2007/web2py/applications/scec/sessions/127.0.0.1-fca1a99d-46e6-4ae6-8243-8e73256055d7'
p3706
asbasbasbag68
(g84
g70
NtRp3707
(dp3708
g73
(dp3709
sg82
g2960
sg75
(lp3710
g68
(g89
g70
NtRp3711
(dp3712
g73
(dp3713
g93
g94
ssg82
g3707
sg75
(lp3714
S'session_id'
p3715
asbag68
(g89
g70
NtRp3716
(dp3717
g73
(dp3718
g100
g101
ssg82
g3707
sg75
(lp3719
S':'
asbag68
(g89
g70
NtRp3720
(dp3721
g73
(dp3722
sg82
g3707
sg75
(lp3723
g68
(g69
g70
NtRp3724
(dp3725
g73
(dp3726
g81
I5
ssg82
g3720
sg75
(lp3727
S'127.0.0.1-fca1a99d-46e6-4ae6-8243-8e73256055d7'
p3728
asbasbasbag68
(g84
g70
NtRp3729
(dp3730
g73
(dp3731
sg82
g2960
sg75
(lp3732
g68
(g89
g70
NtRp3733
(dp3734
g73
(dp3735
g93
g94
ssg82
g3729
sg75
(lp3736
S'session_id_name'
p3737
asbag68
(g89
g70
NtRp3738
(dp3739
g73
(dp3740
g100
g101
ssg82
g3729
sg75
(lp3741
S':'
asbag68
(g89
g70
NtRp3742
(dp3743
g73
(dp3744
sg82
g3729
sg75
(lp3745
g68
(g69
g70
NtRp3746
(dp3747
g73
(dp3748
g81
I5
ssg82
g3742
sg75
(lp3749
g3017
asbasbasbag68
(g84
g70
NtRp3750
(dp3751
g73
(dp3752
sg82
g2960
sg75
(lp3753
g68
(g89
g70
NtRp3754
(dp3755
g73
(dp3756
g93
g94
ssg82
g3750
sg75
(lp3757
S'session_locked'
p3758
asbag68
(g89
g70
NtRp3759
(dp3760
g73
(dp3761
g100
g101
ssg82
g3750
sg75
(lp3762
S':'
asbag68
(g89
g70
NtRp3763
(dp3764
g73
(dp3765
sg82
g3750
sg75
(lp3766
g68
(g69
g70
NtRp3767
(dp3768
g73
(dp3769
g81
I5
ssg82
g3763
sg75
(lp3770
g1594
asbasbasbag68
(g84
g70
NtRp3771
(dp3772
g73
(dp3773
sg82
g2960
sg75
(lp3774
g68
(g89
g70
NtRp3775
(dp3776
g73
(dp3777
g93
g94
ssg82
g3771
sg75
(lp3778
S'session_new'
p3779
asbag68
(g89
g70
NtRp3780
(dp3781
g73
(dp3782
g100
g101
ssg82
g3771
sg75
(lp3783
S':'
asbag68
(g89
g70
NtRp3784
(dp3785
g73
(dp3786
sg82
g3771
sg75
(lp3787
g68
(g69
g70
NtRp3788
(dp3789
g73
(dp3790
g81
I5
ssg82
g3784
sg75
(lp3791
g111
asbasbasbag68
(g84
g70
NtRp3792
(dp3793
g73
(dp3794
sg82
g2960
sg75
(lp3795
g68
(g89
g70
NtRp3796
(dp3797
g73
(dp3798
g93
g94
ssg82
g3792
sg75
(lp3799
S'status'
p3800
asbag68
(g89
g70
NtRp3801
(dp3802
g73
(dp3803
g100
g101
ssg82
g3792
sg75
(lp3804
S':'
asbag68
(g89
g70
NtRp3805
(dp3806
g73
(dp3807
sg82
g3792
sg75
(lp3808
g68
(g69
g70
NtRp3809
(dp3810
g73
(dp3811
g81
I5
ssg82
g3805
sg75
(lp3812
S'200'
p3813
asbasbasbag68
(g84
g70
NtRp3814
(dp3815
g73
(dp3816
sg82
g2960
sg75
(lp3817
g68
(g89
g70
NtRp3818
(dp3819
g73
(dp3820
g93
g94
ssg82
g3814
sg75
(lp3821
S'subtitle'
p3822
asbag68
(g89
g70
NtRp3823
(dp3824
g73
(dp3825
g100
g101
ssg82
g3814
sg75
(lp3826
S':'
asbag68
(g89
g70
NtRp3827
(dp3828
g73
(dp3829
sg82
g3814
sg75
(lp3830
g68
(g69
g70
NtRp3831
(dp3832
g73
(dp3833
g81
I5
ssg82
g3827
sg75
(lp3834
S'Propotipo'
p3835
asbasbasbag68
(g84
g70
NtRp3836
(dp3837
g73
(dp3838
sg82
g2960
sg75
(lp3839
g68
(g89
g70
NtRp3840
(dp3841
g73
(dp3842
g93
g94
ssg82
g3836
sg75
(lp3843
S'title'
p3844
asbag68
(g89
g70
NtRp3845
(dp3846
g73
(dp3847
g100
g101
ssg82
g3836
sg75
(lp3848
S':'
asbag68
(g89
g70
NtRp3849
(dp3850
g73
(dp3851
sg82
g3836
sg75
(lp3852
g68
(g69
g70
NtRp3853
(dp3854
g73
(dp3855
g81
I5
ssg82
g3849
sg75
(lp3856
S'Sistema de Control de Estudios'
p3857
asbasbasbag68
(g84
g70
NtRp3858
(dp3859
g73
(dp3860
sg82
g2960
sg75
(lp3861
g68
(g89
g70
NtRp3862
(dp3863
g73
(dp3864
g93
g94
ssg82
g3858
sg75
(lp3865
g1939
asbag68
(g89
g70
NtRp3866
(dp3867
g73
(dp3868
g100
g101
ssg82
g3858
sg75
(lp3869
S':'
asbag68
(g89
g70
NtRp3870
(dp3871
g73
(dp3872
sg82
g3858
sg75
(lp3873
g68
(g69
g70
NtRp3874
(dp3875
g73
(dp3876
g81
I5
ssg82
g3870
sg75
(lp3877
g1952
asbasbasbag68
(g84
g70
NtRp3878
(dp3879
g73
(dp3880
sg82
g2960
sg75
(lp3881
g68
(g89
g70
NtRp3882
(dp3883
g73
(dp3884
g93
g94
ssg82
g3878
sg75
(lp3885
S'view'
p3886
asbag68
(g89
g70
NtRp3887
(dp3888
g73
(dp3889
g100
g101
ssg82
g3878
sg75
(lp3890
S':'
asbag68
(g89
g70
NtRp3891
(dp3892
g73
(dp3893
sg82
g3878
sg75
(lp3894
g68
(g69
g70
NtRp3895
(dp3896
g73
(dp3897
g81
I5
ssg82
g3891
sg75
(lp3898
S'default/user.html'
p3899
asbasbasbasbasbsS'locals'
p3900
(dp3901
g3
S"'/home/diazluis2007/web2py/applications/scec/models/1_tabla_perfil.py'"
p3902
sg5
S'"# -*- coding: utf-8 -*-\\n\\n\\n\\n\\ndb.define_table(\'per...    IS_LENGTH(minsize=10),\\n    IS_NOT_EMPTY()\\n]\\n\\n"'
p3903
sssS'traceback'
p3904
S'Traceback (most recent call last):\n  File "/home/diazluis2007/web2py/gluon/restricted.py", line 191, in restricted\n    ccode = compile2(code,layer)\n  File "/home/diazluis2007/web2py/gluon/restricted.py", line 178, in compile2\n    return compile(code.rstrip().replace(\'\\r\\n\',\'\\n\')+\'\\n\', layer, \'exec\')\n  File "/home/diazluis2007/web2py/applications/scec/models/1_tabla_perfil.py", line 18\n    Field(\'tipo\', \'string\', length=1, default=\'b\'  writable=False),\n                                                          ^\nSyntaxError: invalid syntax\n'
p3905
s.