(dp1
S'output'
p2
S''
sS'layer'
p3
S'/home/diazluis2007/web2py/applications/scec/models/1_tabla_perfil.py'
p4
sS'code'
p5
S"# -*- coding: utf-8 -*-\n\n\n\n\ndb.define_table('perfil',\n    Field('di', 'integer'),\n    Field('nombre', 'string', length=64),\n    Field('apellido', 'string', length=64),\n    Field('fecha_nac', 'date'),\n    Field('nac', db.pais),\n    Field('estado_civil', 'string', length=1),\n    Field('sexo', 'string', length=1),\n    Field('estado', db.estado),\n    Field('direccion', 'string', length=512),\n    Field('tlf_fijo', 'string', length=64 ),\n    Field('tlf_movil', 'string', length=64),\n    Field('fecha_reg', 'date', default=request.now, writable=False),\n    Field('user', db.auth_user, default=id_user, writable=False, readable=False),\n)\n\n\n\ndb.perfil.di.requires = [\n    IS_INT_IN_RANGE(999999, 30000000),\n    IS_NOT_IN_DB(db, 'perfil.di')\n]\n\ndb.perfil.nombre.requires = db.perfil.apellido.requires = [\n    IS_LENGTH(minsize=3),\n    IS_NOT_EMPTY()\n]\n\n\ndb.perfil.nac.label = 'Nacionalidad'\ndb.perfil.nac.requires = IS_IN_DB(db, 'pais.id', '%(nombre)s', zero='Seleccione el Pais')\n\n\ndb.perfil.estado_civil.requires = IS_IN_SET(_estado_civil, zero='Seleccione el estado Civil')\n\n\ndb.perfil.sexo.requires = IS_IN_SET(_sexo, zero='Seleccione el Sexo')\n\n\ndb.perfil.estado.requires = IS_IN_DB(db, 'estado.nombre', zero=None)\n\n\ndb.perfil.direccion.requires = IS_NOT_EMPTY()\ndb.perfil.direccion.widget = SQLFORM.widgets.text.widget\n\n\ndb.perfil.tlf_fijo.comment = db.perfil.tlf_movil.comment = 'Debe incluir el Codigo'\ndb.perfil.tlf_fijo.requires = db.perfil.tlf_movil.requires = [\n    IS_LENGTH(minsize=10),\n    IS_NOT_EMPTY()\n]\n\n\n\ndb.perfil.tipo.represent = lambda v: _usuario_tipo[v] \n\n\n\n\n"
p6
sS'snapshot'
p7
(dp8
sS'traceback'
p9
S'Traceback (most recent call last):\n  File "/home/diazluis2007/web2py/gluon/restricted.py", line 192, in restricted\n    exec ccode in environment\n  File "/home/diazluis2007/web2py/applications/scec/models/1_tabla_perfil.py", line 60, in <module>\n    db.perfil.tipo.represent = lambda v: _usuario_tipo[v]\n  File "/home/diazluis2007/web2py/gluon/dal.py", line 4648, in __getattr__\n    return self[key]\n  File "/home/diazluis2007/web2py/gluon/dal.py", line 4592, in __getitem__\n    return dict.__getitem__(self, str(key))\nKeyError: \'tipo\'\n'
p10
s.