(dp1
S'output'
p2
S''
sS'layer'
p3
S'/home/diazluis2007/web2py/applications/scec/controllers/default.py'
p4
sS'code'
p5
S'# -*- coding: utf-8 -*-\n# this file is released under public domain and you can use without limitations\n\n#########################################################################\n## This is a samples controller\n## - index is the default action of any application\n## - user is required for authentication and authorization\n## - download is for downloading files uploaded in the db (does streaming)\n## - call exposes all registered services (none by default)\n#########################################################################\n\ndef index():\n    """\n    example action using the internationalization operator T and flash\n    rendered by views/default/index.html or views/generic.html\n    """\n    return dict(message=T(\'Hello World\'))\n\ndef user():\n    """\n    exposes:\n    http://..../[app]/default/user/login\n    http://..../[app]/default/user/logout\n    http://..../[app]/default/user/register\n    http://..../[app]/default/user/profile\n    http://..../[app]/default/user/retrieve_password\n    http://..../[app]/default/user/change_password\n    use @auth.requires_login()\n        @auth.requires_membership(\'group name\')\n        @auth.requires_permission(\'read\',\'table name\',record_id)\n    to decorate functions that need access control\n    """\n\n    form_perfil = None\n\n    if request.args:\n        if request.args[0]==\'profile\': \n\n            perfil = db(db.perfil.user==id_user).select()\n\n            if len(perfil)==0:\n                perfil_id = db.perfil.insert(user=id_user)\n            else:\n                perfil_id = perfil[0].id\n\n            form_perfil = crud.update(db.perfil, perfil_id, deletable=False, next=URL(\'index\'))\n            field_auth = db.auth_user\n            field_auth.email.writable = False\n            form = crud.update(field_auth, id_user)\n            return dict(form=auth(), form_perfil=form_perfil)\n\n    \n    return dict(form=auth(), form_perfil=form_perfil)\n\n\ndef download():\n    """\n    allows downloading of uploaded files\n    http://..../[app]/default/download/[filename]\n    """\n    return response.download(request,db)\n\n\ndef call():\n    """\n    exposes services. for example:\n    http://..../[app]/default/call/jsonrpc\n    decorate with @services.jsonrpc the functions to expose\n    supports xml, json, xmlrpc, jsonrpc, amfrpc, rss, csv\n    """\n    return service()\n\n\n@auth.requires_signature()\ndef data():\n    """\n    http://..../[app]/default/data/tables\n    http://..../[app]/default/data/create/[table]\n    http://..../[app]/default/data/read/[table]/[id]\n    http://..../[app]/default/data/update/[table]/[id]\n    http://..../[app]/default/data/delete/[table]/[id[\n    http://..../[app]/default/data/select/[table]\n    http://..../[app]/default/data/search/[table]\n    but URLs bust be signed, i.e. linked with\n      A(\'table\',_href=URL(\'data/tables\',user_signature=True))\n    or with the signed load operator\n      LOAD(\'default\',\'data.load\',args=\'tables\',ajax=True,user_signature=True)\n    """\n    return dict(form=crud())\n\n\n\ndef setup():\n\n    dato_admin = db(db.auth_group.role==\'admin\').select()\n    \n    if len(dato_admin)==0:\n    \n        # limpia las tablas de control de acceso basado en roles\n        db(db.auth_user.id>0).delete()\n        db(db.auth_group.id>0).delete()\n        db(db.auth_membership.id>0).delete()\n        db(db.auth_permission.id>0).delete()\n        db(db.auth_event.id>0).delete()\n        #-----------\n\n        # crea todos los grupos de usuarios base\n        auth.add_group(\'bachiller\')\n        auth.add_group(\'profesor\')\n        auth.add_group(\'control_estudio\')\n        auth.add_group(\'autoridad\')\n        auth.add_group(\'admin\')\n        #-----------\n        \n        #registra al administrador\n        my_crypt = CRYPT(key=auth.settings.hmac_key)\n        id_user = db.auth_user.insert(email=\'admin@scec.com\', password=my_crypt(\'admin\')[0])\n        #-----------\n\n\n        #agrega al administrador al grupo admin\n        auth.add_membership(\'admin\', id_user)\n        db(db.auth_membership.id<>user_id).delete()\n        #-----------\n\n\n        response.flash = \'Configuracion de admin realizada\'\n    else:\n        response.flash = \'ya existe configuracion de admin\'\n\n    return dict()\n\n\n\n\n\n\n\n\n\n\n\n\n\n\n\n\n\n\n\n\n\n\n\n\n\nresponse._vars=response._caller(setup)\n'
p6
sS'snapshot'
p7
(dp8
S'exception'
p9
(dp10
S'__hash__'
p11
S"<method-wrapper '__hash__' of exceptions.NameError object>"
p12
sS'__setattr__'
p13
S"<method-wrapper '__setattr__' of exceptions.NameError object>"
p14
sS'__reduce_ex__'
p15
S'<built-in method __reduce_ex__ of exceptions.NameError object>'
p16
sS'__getslice__'
p17
S"<method-wrapper '__getslice__' of exceptions.NameError object>"
p18
sS'__getitem__'
p19
S"<method-wrapper '__getitem__' of exceptions.NameError object>"
p20
sS'__setstate__'
p21
S'<built-in method __setstate__ of exceptions.NameError object>'
p22
sS'args'
p23
S'("global name \'user_id\' is not defined",)'
p24
sS'__reduce__'
p25
S'<built-in method __reduce__ of exceptions.NameError object>'
p26
sS'__str__'
p27
S"<method-wrapper '__str__' of exceptions.NameError object>"
p28
sS'__format__'
p29
S'<built-in method __format__ of exceptions.NameError object>'
p30
sS'__getattribute__'
p31
S"<method-wrapper '__getattribute__' of exceptions.NameError object>"
p32
sS'__class__'
p33
S"<type 'exceptions.NameError'>"
p34
sS'__unicode__'
p35
S'<built-in method __unicode__ of exceptions.NameError object>'
p36
sS'__delattr__'
p37
S"<method-wrapper '__delattr__' of exceptions.NameError object>"
p38
sS'__subclasshook__'
p39
S'<built-in method __subclasshook__ of type object>'
p40
sS'__repr__'
p41
S"<method-wrapper '__repr__' of exceptions.NameError object>"
p42
sS'__dict__'
p43
S'{}'
p44
sS'__sizeof__'
p45
S'<built-in method __sizeof__ of exceptions.NameError object>'
p46
sS'__doc__'
p47
S"'Name not found globally.'"
p48
sS'__init__'
p49
S"<method-wrapper '__init__' of exceptions.NameError object>"
p50
sS'__new__'
p51
S'<built-in method __new__ of type object>'
p52
ssS'evalue'
p53
S"global name 'user_id' is not defined"
p54
sS'request'
p55
ccopy_reg
_reconstructor
p56
(cgluon.html
BEAUTIFY
p57
c__builtin__
object
p58
NtRp59
(dp60
S'attributes'
p61
(dp62
sS'components'
p63
(lp64
g56
(cgluon.html
TABLE
p65
g58
NtRp66
(dp67
g61
(dp68
S'level'
p69
I5
ssS'parent'
p70
Nsg63
(lp71
g56
(cgluon.html
TR
p72
g58
NtRp73
(dp74
g61
(dp75
sg70
g66
sg63
(lp76
g56
(cgluon.html
TD
p77
g58
NtRp78
(dp79
g61
(dp80
S'_style'
p81
S'font-weight:bold;'
p82
ssg70
g73
sg63
(lp83
S'ajax'
p84
asbag56
(g77
g58
NtRp85
(dp86
g61
(dp87
S'_valign'
p88
S'top'
p89
ssg70
g73
sg63
(lp90
S':'
asbag56
(g77
g58
NtRp91
(dp92
g61
(dp93
sg70
g73
sg63
(lp94
g56
(g57
g58
NtRp95
(dp96
g61
(dp97
g69
I5
ssg70
g91
sg63
(lp98
S'False'
p99
asbasbasbag56
(g72
g58
NtRp100
(dp101
g61
(dp102
sg70
g66
sg63
(lp103
g56
(g77
g58
NtRp104
(dp105
g61
(dp106
g81
g82
ssg70
g100
sg63
(lp107
S'application'
p108
asbag56
(g77
g58
NtRp109
(dp110
g61
(dp111
g88
g89
ssg70
g100
sg63
(lp112
S':'
asbag56
(g77
g58
NtRp113
(dp114
g61
(dp115
sg70
g100
sg63
(lp116
g56
(g57
g58
NtRp117
(dp118
g61
(dp119
g69
I5
ssg70
g113
sg63
(lp120
S'scec'
p121
asbasbasbag56
(g72
g58
NtRp122
(dp123
g61
(dp124
sg70
g66
sg63
(lp125
g56
(g77
g58
NtRp126
(dp127
g61
(dp128
g81
g82
ssg70
g122
sg63
(lp129
g23
asbag56
(g77
g58
NtRp130
(dp131
g61
(dp132
g88
g89
ssg70
g122
sg63
(lp133
S':'
asbag56
(g77
g58
NtRp134
(dp135
g61
(dp136
sg70
g122
sg63
(lp137
g56
(g57
g58
NtRp138
(dp139
g61
(dp140
g69
I5
ssg70
g134
sg63
(lp141
g56
(g65
g58
NtRp142
(dp143
g61
(dp144
g69
I4
ssg70
Nsg63
(lp145
sbasbasbasbag56
(g72
g58
NtRp146
(dp147
g61
(dp148
sg70
g66
sg63
(lp149
g56
(g77
g58
NtRp150
(dp151
g61
(dp152
g81
g82
ssg70
g146
sg63
(lp153
S'body'
p154
asbag56
(g77
g58
NtRp155
(dp156
g61
(dp157
g88
g89
ssg70
g146
sg63
(lp158
S':'
asbag56
(g77
g58
NtRp159
(dp160
g61
(dp161
sg70
g146
sg63
(lp162
g56
(g57
g58
NtRp163
(dp164
g61
(dp165
g69
I5
ssg70
g159
sg63
(lp166
S'<cStringIO.StringO object at 0x3184768>'
p167
asbasbasbag56
(g72
g58
NtRp168
(dp169
g61
(dp170
sg70
g66
sg63
(lp171
g56
(g77
g58
NtRp172
(dp173
g61
(dp174
g81
g82
ssg70
g168
sg63
(lp175
S'client'
p176
asbag56
(g77
g58
NtRp177
(dp178
g61
(dp179
g88
g89
ssg70
g168
sg63
(lp180
S':'
asbag56
(g77
g58
NtRp181
(dp182
g61
(dp183
sg70
g168
sg63
(lp184
g56
(g57
g58
NtRp185
(dp186
g61
(dp187
g69
I5
ssg70
g181
sg63
(lp188
S'127.0.0.1'
p189
asbasbasbag56
(g72
g58
NtRp190
(dp191
g61
(dp192
sg70
g66
sg63
(lp193
g56
(g77
g58
NtRp194
(dp195
g61
(dp196
g81
g82
ssg70
g190
sg63
(lp197
S'controller'
p198
asbag56
(g77
g58
NtRp199
(dp200
g61
(dp201
g88
g89
ssg70
g190
sg63
(lp202
S':'
asbag56
(g77
g58
NtRp203
(dp204
g61
(dp205
sg70
g190
sg63
(lp206
g56
(g57
g58
NtRp207
(dp208
g61
(dp209
g69
I5
ssg70
g203
sg63
(lp210
S'default'
p211
asbasbasbag56
(g72
g58
NtRp212
(dp213
g61
(dp214
sg70
g66
sg63
(lp215
g56
(g77
g58
NtRp216
(dp217
g61
(dp218
g81
g82
ssg70
g212
sg63
(lp219
S'cookies'
p220
asbag56
(g77
g58
NtRp221
(dp222
g61
(dp223
g88
g89
ssg70
g212
sg63
(lp224
S':'
asbag56
(g77
g58
NtRp225
(dp226
g61
(dp227
sg70
g212
sg63
(lp228
g56
(g57
g58
NtRp229
(dp230
g61
(dp231
g69
I5
ssg70
g225
sg63
(lp232
g56
(g65
g58
NtRp233
(dp234
g61
(dp235
g69
I4
ssg70
Nsg63
(lp236
g56
(g72
g58
NtRp237
(dp238
g61
(dp239
sg70
g233
sg63
(lp240
g56
(g77
g58
NtRp241
(dp242
g61
(dp243
g81
g82
ssg70
g237
sg63
(lp244
S'session_id_admin'
p245
asbag56
(g77
g58
NtRp246
(dp247
g61
(dp248
g88
g89
ssg70
g237
sg63
(lp249
S':'
asbag56
(g77
g58
NtRp250
(dp251
g61
(dp252
sg70
g237
sg63
(lp253
g56
(g57
g58
NtRp254
(dp255
g61
(dp256
g69
I4
ssg70
g250
sg63
(lp257
g56
(g65
g58
NtRp258
(dp259
g61
(dp260
g69
I3
ssg70
Nsg63
(lp261
g56
(g72
g58
NtRp262
(dp263
g61
(dp264
sg70
g258
sg63
(lp265
g56
(g77
g58
NtRp266
(dp267
g61
(dp268
g81
g82
ssg70
g262
sg63
(lp269
S'comment'
p270
asbag56
(g77
g58
NtRp271
(dp272
g61
(dp273
g88
g89
ssg70
g262
sg63
(lp274
S':'
asbag56
(g77
g58
NtRp275
(dp276
g61
(dp277
sg70
g262
sg63
(lp278
g56
(g57
g58
NtRp279
(dp280
g61
(dp281
g69
I3
ssg70
g275
sg63
(lp282
S''
asbasbasbag56
(g72
g58
NtRp283
(dp284
g61
(dp285
sg70
g258
sg63
(lp286
g56
(g77
g58
NtRp287
(dp288
g61
(dp289
g81
g82
ssg70
g283
sg63
(lp290
S'domain'
p291
asbag56
(g77
g58
NtRp292
(dp293
g61
(dp294
g88
g89
ssg70
g283
sg63
(lp295
S':'
asbag56
(g77
g58
NtRp296
(dp297
g61
(dp298
sg70
g283
sg63
(lp299
g56
(g57
g58
NtRp300
(dp301
g61
(dp302
g69
I3
ssg70
g296
sg63
(lp303
S''
asbasbasbag56
(g72
g58
NtRp304
(dp305
g61
(dp306
sg70
g258
sg63
(lp307
g56
(g77
g58
NtRp308
(dp309
g61
(dp310
g81
g82
ssg70
g304
sg63
(lp311
S'expires'
p312
asbag56
(g77
g58
NtRp313
(dp314
g61
(dp315
g88
g89
ssg70
g304
sg63
(lp316
S':'
asbag56
(g77
g58
NtRp317
(dp318
g61
(dp319
sg70
g304
sg63
(lp320
g56
(g57
g58
NtRp321
(dp322
g61
(dp323
g69
I3
ssg70
g317
sg63
(lp324
S''
asbasbasbag56
(g72
g58
NtRp325
(dp326
g61
(dp327
sg70
g258
sg63
(lp328
g56
(g77
g58
NtRp329
(dp330
g61
(dp331
g81
g82
ssg70
g325
sg63
(lp332
S'httponly'
p333
asbag56
(g77
g58
NtRp334
(dp335
g61
(dp336
g88
g89
ssg70
g325
sg63
(lp337
S':'
asbag56
(g77
g58
NtRp338
(dp339
g61
(dp340
sg70
g325
sg63
(lp341
g56
(g57
g58
NtRp342
(dp343
g61
(dp344
g69
I3
ssg70
g338
sg63
(lp345
S''
asbasbasbag56
(g72
g58
NtRp346
(dp347
g61
(dp348
sg70
g258
sg63
(lp349
g56
(g77
g58
NtRp350
(dp351
g61
(dp352
g81
g82
ssg70
g346
sg63
(lp353
S'max-age'
p354
asbag56
(g77
g58
NtRp355
(dp356
g61
(dp357
g88
g89
ssg70
g346
sg63
(lp358
S':'
asbag56
(g77
g58
NtRp359
(dp360
g61
(dp361
sg70
g346
sg63
(lp362
g56
(g57
g58
NtRp363
(dp364
g61
(dp365
g69
I3
ssg70
g359
sg63
(lp366
S''
asbasbasbag56
(g72
g58
NtRp367
(dp368
g61
(dp369
sg70
g258
sg63
(lp370
g56
(g77
g58
NtRp371
(dp372
g61
(dp373
g81
g82
ssg70
g367
sg63
(lp374
S'path'
p375
asbag56
(g77
g58
NtRp376
(dp377
g61
(dp378
g88
g89
ssg70
g367
sg63
(lp379
S':'
asbag56
(g77
g58
NtRp380
(dp381
g61
(dp382
sg70
g367
sg63
(lp383
g56
(g57
g58
NtRp384
(dp385
g61
(dp386
g69
I3
ssg70
g380
sg63
(lp387
S''
asbasbasbag56
(g72
g58
NtRp388
(dp389
g61
(dp390
sg70
g258
sg63
(lp391
g56
(g77
g58
NtRp392
(dp393
g61
(dp394
g81
g82
ssg70
g388
sg63
(lp395
S'secure'
p396
asbag56
(g77
g58
NtRp397
(dp398
g61
(dp399
g88
g89
ssg70
g388
sg63
(lp400
S':'
asbag56
(g77
g58
NtRp401
(dp402
g61
(dp403
sg70
g388
sg63
(lp404
g56
(g57
g58
NtRp405
(dp406
g61
(dp407
g69
I3
ssg70
g401
sg63
(lp408
S''
asbasbasbag56
(g72
g58
NtRp409
(dp410
g61
(dp411
sg70
g258
sg63
(lp412
g56
(g77
g58
NtRp413
(dp414
g61
(dp415
g81
g82
ssg70
g409
sg63
(lp416
S'version'
p417
asbag56
(g77
g58
NtRp418
(dp419
g61
(dp420
g88
g89
ssg70
g409
sg63
(lp421
S':'
asbag56
(g77
g58
NtRp422
(dp423
g61
(dp424
sg70
g409
sg63
(lp425
g56
(g57
g58
NtRp426
(dp427
g61
(dp428
g69
I3
ssg70
g422
sg63
(lp429
S''
asbasbasbasbasbasbasbag56
(g72
g58
NtRp430
(dp431
g61
(dp432
sg70
g233
sg63
(lp433
g56
(g77
g58
NtRp434
(dp435
g61
(dp436
g81
g82
ssg70
g430
sg63
(lp437
S'session_id_scec'
p438
asbag56
(g77
g58
NtRp439
(dp440
g61
(dp441
g88
g89
ssg70
g430
sg63
(lp442
S':'
asbag56
(g77
g58
NtRp443
(dp444
g61
(dp445
sg70
g430
sg63
(lp446
g56
(g57
g58
NtRp447
(dp448
g61
(dp449
g69
I4
ssg70
g443
sg63
(lp450
g56
(g65
g58
NtRp451
(dp452
g61
(dp453
g69
I3
ssg70
Nsg63
(lp454
g56
(g72
g58
NtRp455
(dp456
g61
(dp457
sg70
g451
sg63
(lp458
g56
(g77
g58
NtRp459
(dp460
g61
(dp461
g81
g82
ssg70
g455
sg63
(lp462
g270
asbag56
(g77
g58
NtRp463
(dp464
g61
(dp465
g88
g89
ssg70
g455
sg63
(lp466
S':'
asbag56
(g77
g58
NtRp467
(dp468
g61
(dp469
sg70
g455
sg63
(lp470
g56
(g57
g58
NtRp471
(dp472
g61
(dp473
g69
I3
ssg70
g467
sg63
(lp474
S''
asbasbasbag56
(g72
g58
NtRp475
(dp476
g61
(dp477
sg70
g451
sg63
(lp478
g56
(g77
g58
NtRp479
(dp480
g61
(dp481
g81
g82
ssg70
g475
sg63
(lp482
g291
asbag56
(g77
g58
NtRp483
(dp484
g61
(dp485
g88
g89
ssg70
g475
sg63
(lp486
S':'
asbag56
(g77
g58
NtRp487
(dp488
g61
(dp489
sg70
g475
sg63
(lp490
g56
(g57
g58
NtRp491
(dp492
g61
(dp493
g69
I3
ssg70
g487
sg63
(lp494
S''
asbasbasbag56
(g72
g58
NtRp495
(dp496
g61
(dp497
sg70
g451
sg63
(lp498
g56
(g77
g58
NtRp499
(dp500
g61
(dp501
g81
g82
ssg70
g495
sg63
(lp502
g312
asbag56
(g77
g58
NtRp503
(dp504
g61
(dp505
g88
g89
ssg70
g495
sg63
(lp506
S':'
asbag56
(g77
g58
NtRp507
(dp508
g61
(dp509
sg70
g495
sg63
(lp510
g56
(g57
g58
NtRp511
(dp512
g61
(dp513
g69
I3
ssg70
g507
sg63
(lp514
S''
asbasbasbag56
(g72
g58
NtRp515
(dp516
g61
(dp517
sg70
g451
sg63
(lp518
g56
(g77
g58
NtRp519
(dp520
g61
(dp521
g81
g82
ssg70
g515
sg63
(lp522
g333
asbag56
(g77
g58
NtRp523
(dp524
g61
(dp525
g88
g89
ssg70
g515
sg63
(lp526
S':'
asbag56
(g77
g58
NtRp527
(dp528
g61
(dp529
sg70
g515
sg63
(lp530
g56
(g57
g58
NtRp531
(dp532
g61
(dp533
g69
I3
ssg70
g527
sg63
(lp534
S''
asbasbasbag56
(g72
g58
NtRp535
(dp536
g61
(dp537
sg70
g451
sg63
(lp538
g56
(g77
g58
NtRp539
(dp540
g61
(dp541
g81
g82
ssg70
g535
sg63
(lp542
g354
asbag56
(g77
g58
NtRp543
(dp544
g61
(dp545
g88
g89
ssg70
g535
sg63
(lp546
S':'
asbag56
(g77
g58
NtRp547
(dp548
g61
(dp549
sg70
g535
sg63
(lp550
g56
(g57
g58
NtRp551
(dp552
g61
(dp553
g69
I3
ssg70
g547
sg63
(lp554
S''
asbasbasbag56
(g72
g58
NtRp555
(dp556
g61
(dp557
sg70
g451
sg63
(lp558
g56
(g77
g58
NtRp559
(dp560
g61
(dp561
g81
g82
ssg70
g555
sg63
(lp562
g375
asbag56
(g77
g58
NtRp563
(dp564
g61
(dp565
g88
g89
ssg70
g555
sg63
(lp566
S':'
asbag56
(g77
g58
NtRp567
(dp568
g61
(dp569
sg70
g555
sg63
(lp570
g56
(g57
g58
NtRp571
(dp572
g61
(dp573
g69
I3
ssg70
g567
sg63
(lp574
S''
asbasbasbag56
(g72
g58
NtRp575
(dp576
g61
(dp577
sg70
g451
sg63
(lp578
g56
(g77
g58
NtRp579
(dp580
g61
(dp581
g81
g82
ssg70
g575
sg63
(lp582
g396
asbag56
(g77
g58
NtRp583
(dp584
g61
(dp585
g88
g89
ssg70
g575
sg63
(lp586
S':'
asbag56
(g77
g58
NtRp587
(dp588
g61
(dp589
sg70
g575
sg63
(lp590
g56
(g57
g58
NtRp591
(dp592
g61
(dp593
g69
I3
ssg70
g587
sg63
(lp594
S''
asbasbasbag56
(g72
g58
NtRp595
(dp596
g61
(dp597
sg70
g451
sg63
(lp598
g56
(g77
g58
NtRp599
(dp600
g61
(dp601
g81
g82
ssg70
g595
sg63
(lp602
g417
asbag56
(g77
g58
NtRp603
(dp604
g61
(dp605
g88
g89
ssg70
g595
sg63
(lp606
S':'
asbag56
(g77
g58
NtRp607
(dp608
g61
(dp609
sg70
g595
sg63
(lp610
g56
(g57
g58
NtRp611
(dp612
g61
(dp613
g69
I3
ssg70
g607
sg63
(lp614
S''
asbasbasbasbasbasbasbag56
(g72
g58
NtRp615
(dp616
g61
(dp617
sg70
g233
sg63
(lp618
g56
(g77
g58
NtRp619
(dp620
g61
(dp621
g81
g82
ssg70
g615
sg63
(lp622
S'session_id_welcome'
p623
asbag56
(g77
g58
NtRp624
(dp625
g61
(dp626
g88
g89
ssg70
g615
sg63
(lp627
S':'
asbag56
(g77
g58
NtRp628
(dp629
g61
(dp630
sg70
g615
sg63
(lp631
g56
(g57
g58
NtRp632
(dp633
g61
(dp634
g69
I4
ssg70
g628
sg63
(lp635
g56
(g65
g58
NtRp636
(dp637
g61
(dp638
g69
I3
ssg70
Nsg63
(lp639
g56
(g72
g58
NtRp640
(dp641
g61
(dp642
sg70
g636
sg63
(lp643
g56
(g77
g58
NtRp644
(dp645
g61
(dp646
g81
g82
ssg70
g640
sg63
(lp647
g270
asbag56
(g77
g58
NtRp648
(dp649
g61
(dp650
g88
g89
ssg70
g640
sg63
(lp651
S':'
asbag56
(g77
g58
NtRp652
(dp653
g61
(dp654
sg70
g640
sg63
(lp655
g56
(g57
g58
NtRp656
(dp657
g61
(dp658
g69
I3
ssg70
g652
sg63
(lp659
S''
asbasbasbag56
(g72
g58
NtRp660
(dp661
g61
(dp662
sg70
g636
sg63
(lp663
g56
(g77
g58
NtRp664
(dp665
g61
(dp666
g81
g82
ssg70
g660
sg63
(lp667
g291
asbag56
(g77
g58
NtRp668
(dp669
g61
(dp670
g88
g89
ssg70
g660
sg63
(lp671
S':'
asbag56
(g77
g58
NtRp672
(dp673
g61
(dp674
sg70
g660
sg63
(lp675
g56
(g57
g58
NtRp676
(dp677
g61
(dp678
g69
I3
ssg70
g672
sg63
(lp679
S''
asbasbasbag56
(g72
g58
NtRp680
(dp681
g61
(dp682
sg70
g636
sg63
(lp683
g56
(g77
g58
NtRp684
(dp685
g61
(dp686
g81
g82
ssg70
g680
sg63
(lp687
g312
asbag56
(g77
g58
NtRp688
(dp689
g61
(dp690
g88
g89
ssg70
g680
sg63
(lp691
S':'
asbag56
(g77
g58
NtRp692
(dp693
g61
(dp694
sg70
g680
sg63
(lp695
g56
(g57
g58
NtRp696
(dp697
g61
(dp698
g69
I3
ssg70
g692
sg63
(lp699
S''
asbasbasbag56
(g72
g58
NtRp700
(dp701
g61
(dp702
sg70
g636
sg63
(lp703
g56
(g77
g58
NtRp704
(dp705
g61
(dp706
g81
g82
ssg70
g700
sg63
(lp707
g333
asbag56
(g77
g58
NtRp708
(dp709
g61
(dp710
g88
g89
ssg70
g700
sg63
(lp711
S':'
asbag56
(g77
g58
NtRp712
(dp713
g61
(dp714
sg70
g700
sg63
(lp715
g56
(g57
g58
NtRp716
(dp717
g61
(dp718
g69
I3
ssg70
g712
sg63
(lp719
S''
asbasbasbag56
(g72
g58
NtRp720
(dp721
g61
(dp722
sg70
g636
sg63
(lp723
g56
(g77
g58
NtRp724
(dp725
g61
(dp726
g81
g82
ssg70
g720
sg63
(lp727
g354
asbag56
(g77
g58
NtRp728
(dp729
g61
(dp730
g88
g89
ssg70
g720
sg63
(lp731
S':'
asbag56
(g77
g58
NtRp732
(dp733
g61
(dp734
sg70
g720
sg63
(lp735
g56
(g57
g58
NtRp736
(dp737
g61
(dp738
g69
I3
ssg70
g732
sg63
(lp739
S''
asbasbasbag56
(g72
g58
NtRp740
(dp741
g61
(dp742
sg70
g636
sg63
(lp743
g56
(g77
g58
NtRp744
(dp745
g61
(dp746
g81
g82
ssg70
g740
sg63
(lp747
g375
asbag56
(g77
g58
NtRp748
(dp749
g61
(dp750
g88
g89
ssg70
g740
sg63
(lp751
S':'
asbag56
(g77
g58
NtRp752
(dp753
g61
(dp754
sg70
g740
sg63
(lp755
g56
(g57
g58
NtRp756
(dp757
g61
(dp758
g69
I3
ssg70
g752
sg63
(lp759
S''
asbasbasbag56
(g72
g58
NtRp760
(dp761
g61
(dp762
sg70
g636
sg63
(lp763
g56
(g77
g58
NtRp764
(dp765
g61
(dp766
g81
g82
ssg70
g760
sg63
(lp767
g396
asbag56
(g77
g58
NtRp768
(dp769
g61
(dp770
g88
g89
ssg70
g760
sg63
(lp771
S':'
asbag56
(g77
g58
NtRp772
(dp773
g61
(dp774
sg70
g760
sg63
(lp775
g56
(g57
g58
NtRp776
(dp777
g61
(dp778
g69
I3
ssg70
g772
sg63
(lp779
S''
asbasbasbag56
(g72
g58
NtRp780
(dp781
g61
(dp782
sg70
g636
sg63
(lp783
g56
(g77
g58
NtRp784
(dp785
g61
(dp786
g81
g82
ssg70
g780
sg63
(lp787
g417
asbag56
(g77
g58
NtRp788
(dp789
g61
(dp790
g88
g89
ssg70
g780
sg63
(lp791
S':'
asbag56
(g77
g58
NtRp792
(dp793
g61
(dp794
sg70
g780
sg63
(lp795
g56
(g57
g58
NtRp796
(dp797
g61
(dp798
g69
I3
ssg70
g792
sg63
(lp799
S''
asbasbasbasbasbasbasbasbasbasbasbag56
(g72
g58
NtRp800
(dp801
g61
(dp802
sg70
g66
sg63
(lp803
g56
(g77
g58
NtRp804
(dp805
g61
(dp806
g81
g82
ssg70
g800
sg63
(lp807
S'env'
p808
asbag56
(g77
g58
NtRp809
(dp810
g61
(dp811
g88
g89
ssg70
g800
sg63
(lp812
S':'
asbag56
(g77
g58
NtRp813
(dp814
g61
(dp815
sg70
g800
sg63
(lp816
g56
(g57
g58
NtRp817
(dp818
g61
(dp819
g69
I5
ssg70
g813
sg63
(lp820
g56
(g65
g58
NtRp821
(dp822
g61
(dp823
g69
I4
ssg70
Nsg63
(lp824
g56
(g72
g58
NtRp825
(dp826
g61
(dp827
sg70
g821
sg63
(lp828
g56
(g77
g58
NtRp829
(dp830
g61
(dp831
g81
g82
ssg70
g825
sg63
(lp832
S'app_folders'
p833
asbag56
(g77
g58
NtRp834
(dp835
g61
(dp836
g88
g89
ssg70
g825
sg63
(lp837
S':'
asbag56
(g77
g58
NtRp838
(dp839
g61
(dp840
sg70
g825
sg63
(lp841
g56
(g57
g58
NtRp842
(dp843
g61
(dp844
g69
I4
ssg70
g838
sg63
(lp845
S"set(['/home/diazluis2007/web2py/applications/welcome/', '/home/diazluis2007/web2py/applications/scec/', '/home/diazluis2007/web2py/applications/admin/'])"
p846
asbasbasbag56
(g72
g58
NtRp847
(dp848
g61
(dp849
sg70
g821
sg63
(lp850
g56
(g77
g58
NtRp851
(dp852
g61
(dp853
g81
g82
ssg70
g847
sg63
(lp854
S'applications_parent'
p855
asbag56
(g77
g58
NtRp856
(dp857
g61
(dp858
g88
g89
ssg70
g847
sg63
(lp859
S':'
asbag56
(g77
g58
NtRp860
(dp861
g61
(dp862
sg70
g847
sg63
(lp863
g56
(g57
g58
NtRp864
(dp865
g61
(dp866
g69
I4
ssg70
g860
sg63
(lp867
S'/home/diazluis2007/web2py'
p868
asbasbasbag56
(g72
g58
NtRp869
(dp870
g61
(dp871
sg70
g821
sg63
(lp872
g56
(g77
g58
NtRp873
(dp874
g61
(dp875
g81
g82
ssg70
g869
sg63
(lp876
S'cmd_args'
p877
asbag56
(g77
g58
NtRp878
(dp879
g61
(dp880
g88
g89
ssg70
g869
sg63
(lp881
S':'
asbag56
(g77
g58
NtRp882
(dp883
g61
(dp884
sg70
g869
sg63
(lp885
g56
(g57
g58
NtRp886
(dp887
g61
(dp888
g69
I4
ssg70
g882
sg63
(lp889
g56
(g65
g58
NtRp890
(dp891
g61
(dp892
g69
I3
ssg70
Nsg63
(lp893
sbasbasbasbag56
(g72
g58
NtRp894
(dp895
g61
(dp896
sg70
g821
sg63
(lp897
g56
(g77
g58
NtRp898
(dp899
g61
(dp900
g81
g82
ssg70
g894
sg63
(lp901
S'cmd_options'
p902
asbag56
(g77
g58
NtRp903
(dp904
g61
(dp905
g88
g89
ssg70
g894
sg63
(lp906
S':'
asbag56
(g77
g58
NtRp907
(dp908
g61
(dp909
sg70
g894
sg63
(lp910
g56
(g57
g58
NtRp911
(dp912
g61
(dp913
g69
I4
ssg70
g907
sg63
(lp914
S"<Values at 0x28a6998: {'verbose': False, 'ip': '127.0.0.1', 'shutdown_timeout': 5, 'taskbar': False, 'port': 8000, 'maxthreads': None, 'softcron': False, 'server_name': 'morfeo', 'bpython': False, 'nogui': False, 'nocron': False, 'extcron': False, 'debuglevel': 30, 'test': None, 'folder': '/home/diazluis2007/web2py', 'config': '', 'import_models': False, 'winservice': '', 'shell': None, 'run': '', 'log_filename': 'httpserver.log', 'args': [''], 'profiler_filename': None, 'ssl_private_key': '', 'password': '<ask>', 'request_queue_size': 5, 'ssl_certificate': '', 'cronjob': False, 'plain': False, 'quiet': False, 'interfaces': None, 'minthreads': None, 'timeout': 10, 'numthreads': None, 'nobanner': False, 'pid_filename': 'httpserver.pid'}>"
p915
asbasbasbag56
(g72
g58
NtRp916
(dp917
g61
(dp918
sg70
g821
sg63
(lp919
g56
(g77
g58
NtRp920
(dp921
g61
(dp922
g81
g82
ssg70
g916
sg63
(lp923
S'db_sessions'
p924
asbag56
(g77
g58
NtRp925
(dp926
g61
(dp927
g88
g89
ssg70
g916
sg63
(lp928
S':'
asbag56
(g77
g58
NtRp929
(dp930
g61
(dp931
sg70
g916
sg63
(lp932
g56
(g57
g58
NtRp933
(dp934
g61
(dp935
g69
I4
ssg70
g929
sg63
(lp936
S'set([])'
p937
asbasbasbag56
(g72
g58
NtRp938
(dp939
g61
(dp940
sg70
g821
sg63
(lp941
g56
(g77
g58
NtRp942
(dp943
g61
(dp944
g81
g82
ssg70
g938
sg63
(lp945
S'debugging'
p946
asbag56
(g77
g58
NtRp947
(dp948
g61
(dp949
g88
g89
ssg70
g938
sg63
(lp950
S':'
asbag56
(g77
g58
NtRp951
(dp952
g61
(dp953
sg70
g938
sg63
(lp954
g56
(g57
g58
NtRp955
(dp956
g61
(dp957
g69
I4
ssg70
g951
sg63
(lp958
g99
asbasbasbag56
(g72
g58
NtRp959
(dp960
g61
(dp961
sg70
g821
sg63
(lp962
g56
(g77
g58
NtRp963
(dp964
g61
(dp965
g81
g82
ssg70
g959
sg63
(lp966
S'gluon_parent'
p967
asbag56
(g77
g58
NtRp968
(dp969
g61
(dp970
g88
g89
ssg70
g959
sg63
(lp971
S':'
asbag56
(g77
g58
NtRp972
(dp973
g61
(dp974
sg70
g959
sg63
(lp975
g56
(g57
g58
NtRp976
(dp977
g61
(dp978
g69
I4
ssg70
g972
sg63
(lp979
S'/home/diazluis2007/web2py'
p980
asbasbasbag56
(g72
g58
NtRp981
(dp982
g61
(dp983
sg70
g821
sg63
(lp984
g56
(g77
g58
NtRp985
(dp986
g61
(dp987
g81
g82
ssg70
g981
sg63
(lp988
S'http_accept'
p989
asbag56
(g77
g58
NtRp990
(dp991
g61
(dp992
g88
g89
ssg70
g981
sg63
(lp993
S':'
asbag56
(g77
g58
NtRp994
(dp995
g61
(dp996
sg70
g981
sg63
(lp997
g56
(g57
g58
NtRp998
(dp999
g61
(dp1000
g69
I4
ssg70
g994
sg63
(lp1001
S'text/html,application/xhtml+xml,application/xml;q=0.9,*/*;q=0.8'
p1002
asbasbasbag56
(g72
g58
NtRp1003
(dp1004
g61
(dp1005
sg70
g821
sg63
(lp1006
g56
(g77
g58
NtRp1007
(dp1008
g61
(dp1009
g81
g82
ssg70
g1003
sg63
(lp1010
S'http_accept_charset'
p1011
asbag56
(g77
g58
NtRp1012
(dp1013
g61
(dp1014
g88
g89
ssg70
g1003
sg63
(lp1015
S':'
asbag56
(g77
g58
NtRp1016
(dp1017
g61
(dp1018
sg70
g1003
sg63
(lp1019
g56
(g57
g58
NtRp1020
(dp1021
g61
(dp1022
g69
I4
ssg70
g1016
sg63
(lp1023
S'UTF-8,*;q=0.5'
p1024
asbasbasbag56
(g72
g58
NtRp1025
(dp1026
g61
(dp1027
sg70
g821
sg63
(lp1028
g56
(g77
g58
NtRp1029
(dp1030
g61
(dp1031
g81
g82
ssg70
g1025
sg63
(lp1032
S'http_accept_encoding'
p1033
asbag56
(g77
g58
NtRp1034
(dp1035
g61
(dp1036
g88
g89
ssg70
g1025
sg63
(lp1037
S':'
asbag56
(g77
g58
NtRp1038
(dp1039
g61
(dp1040
sg70
g1025
sg63
(lp1041
g56
(g57
g58
NtRp1042
(dp1043
g61
(dp1044
g69
I4
ssg70
g1038
sg63
(lp1045
S'gzip,deflate,sdch'
p1046
asbasbasbag56
(g72
g58
NtRp1047
(dp1048
g61
(dp1049
sg70
g821
sg63
(lp1050
g56
(g77
g58
NtRp1051
(dp1052
g61
(dp1053
g81
g82
ssg70
g1047
sg63
(lp1054
S'http_accept_language'
p1055
asbag56
(g77
g58
NtRp1056
(dp1057
g61
(dp1058
g88
g89
ssg70
g1047
sg63
(lp1059
S':'
asbag56
(g77
g58
NtRp1060
(dp1061
g61
(dp1062
sg70
g1047
sg63
(lp1063
g56
(g57
g58
NtRp1064
(dp1065
g61
(dp1066
g69
I4
ssg70
g1060
sg63
(lp1067
S'es'
p1068
asbasbasbag56
(g72
g58
NtRp1069
(dp1070
g61
(dp1071
sg70
g821
sg63
(lp1072
g56
(g77
g58
NtRp1073
(dp1074
g61
(dp1075
g81
g82
ssg70
g1069
sg63
(lp1076
S'http_cache_control'
p1077
asbag56
(g77
g58
NtRp1078
(dp1079
g61
(dp1080
g88
g89
ssg70
g1069
sg63
(lp1081
S':'
asbag56
(g77
g58
NtRp1082
(dp1083
g61
(dp1084
sg70
g1069
sg63
(lp1085
g56
(g57
g58
NtRp1086
(dp1087
g61
(dp1088
g69
I4
ssg70
g1082
sg63
(lp1089
S'max-age=0'
p1090
asbasbasbag56
(g72
g58
NtRp1091
(dp1092
g61
(dp1093
sg70
g821
sg63
(lp1094
g56
(g77
g58
NtRp1095
(dp1096
g61
(dp1097
g81
g82
ssg70
g1091
sg63
(lp1098
S'http_connection'
p1099
asbag56
(g77
g58
NtRp1100
(dp1101
g61
(dp1102
g88
g89
ssg70
g1091
sg63
(lp1103
S':'
asbag56
(g77
g58
NtRp1104
(dp1105
g61
(dp1106
sg70
g1091
sg63
(lp1107
g56
(g57
g58
NtRp1108
(dp1109
g61
(dp1110
g69
I4
ssg70
g1104
sg63
(lp1111
S'keep-alive'
p1112
asbasbasbag56
(g72
g58
NtRp1113
(dp1114
g61
(dp1115
sg70
g821
sg63
(lp1116
g56
(g77
g58
NtRp1117
(dp1118
g61
(dp1119
g81
g82
ssg70
g1113
sg63
(lp1120
S'http_cookie'
p1121
asbag56
(g77
g58
NtRp1122
(dp1123
g61
(dp1124
g88
g89
ssg70
g1113
sg63
(lp1125
S':'
asbag56
(g77
g58
NtRp1126
(dp1127
g61
(dp1128
sg70
g1113
sg63
(lp1129
g56
(g57
g58
NtRp1130
(dp1131
g61
(dp1132
g69
I4
ssg70
g1126
sg63
(lp1133
S'session_id_welcome=127.0.0.1-859d4810-0703-4e04-b196-909c216fcd2a; session_id_admin=127.0.0.1-18338766-ea9e-4b77-a59c-d254e2594d77; session_id_scec=127.0.0.1-8199219c-f5a5-44cd-8601-dbcaf7e65670'
p1134
asbasbasbag56
(g72
g58
NtRp1135
(dp1136
g61
(dp1137
sg70
g821
sg63
(lp1138
g56
(g77
g58
NtRp1139
(dp1140
g61
(dp1141
g81
g82
ssg70
g1135
sg63
(lp1142
S'http_host'
p1143
asbag56
(g77
g58
NtRp1144
(dp1145
g61
(dp1146
g88
g89
ssg70
g1135
sg63
(lp1147
S':'
asbag56
(g77
g58
NtRp1148
(dp1149
g61
(dp1150
sg70
g1135
sg63
(lp1151
g56
(g57
g58
NtRp1152
(dp1153
g61
(dp1154
g69
I4
ssg70
g1148
sg63
(lp1155
S'127.0.0.1:8000'
p1156
asbasbasbag56
(g72
g58
NtRp1157
(dp1158
g61
(dp1159
sg70
g821
sg63
(lp1160
g56
(g77
g58
NtRp1161
(dp1162
g61
(dp1163
g81
g82
ssg70
g1157
sg63
(lp1164
S'http_user_agent'
p1165
asbag56
(g77
g58
NtRp1166
(dp1167
g61
(dp1168
g88
g89
ssg70
g1157
sg63
(lp1169
S':'
asbag56
(g77
g58
NtRp1170
(dp1171
g61
(dp1172
sg70
g1157
sg63
(lp1173
g56
(g57
g58
NtRp1174
(dp1175
g61
(dp1176
g69
I4
ssg70
g1170
sg63
(lp1177
S'Mozilla/5.0 (X11; Linux x86_64) AppleWebKit/534.30 (KHTML, like Gecko) Chrome/12.0.742.124 Safari/534.30'
p1178
asbasbasbag56
(g72
g58
NtRp1179
(dp1180
g61
(dp1181
sg70
g821
sg63
(lp1182
g56
(g77
g58
NtRp1183
(dp1184
g61
(dp1185
g81
g82
ssg70
g1179
sg63
(lp1186
S'path_info'
p1187
asbag56
(g77
g58
NtRp1188
(dp1189
g61
(dp1190
g88
g89
ssg70
g1179
sg63
(lp1191
S':'
asbag56
(g77
g58
NtRp1192
(dp1193
g61
(dp1194
sg70
g1179
sg63
(lp1195
g56
(g57
g58
NtRp1196
(dp1197
g61
(dp1198
g69
I4
ssg70
g1192
sg63
(lp1199
S'/scec/default/setup'
p1200
asbasbasbag56
(g72
g58
NtRp1201
(dp1202
g61
(dp1203
sg70
g821
sg63
(lp1204
g56
(g77
g58
NtRp1205
(dp1206
g61
(dp1207
g81
g82
ssg70
g1201
sg63
(lp1208
S'query_string'
p1209
asbag56
(g77
g58
NtRp1210
(dp1211
g61
(dp1212
g88
g89
ssg70
g1201
sg63
(lp1213
S':'
asbag56
(g77
g58
NtRp1214
(dp1215
g61
(dp1216
sg70
g1201
sg63
(lp1217
g56
(g57
g58
NtRp1218
(dp1219
g61
(dp1220
g69
I4
ssg70
g1214
sg63
(lp1221
S''
asbasbasbag56
(g72
g58
NtRp1222
(dp1223
g61
(dp1224
sg70
g821
sg63
(lp1225
g56
(g77
g58
NtRp1226
(dp1227
g61
(dp1228
g81
g82
ssg70
g1222
sg63
(lp1229
S'remote_addr'
p1230
asbag56
(g77
g58
NtRp1231
(dp1232
g61
(dp1233
g88
g89
ssg70
g1222
sg63
(lp1234
S':'
asbag56
(g77
g58
NtRp1235
(dp1236
g61
(dp1237
sg70
g1222
sg63
(lp1238
g56
(g57
g58
NtRp1239
(dp1240
g61
(dp1241
g69
I4
ssg70
g1235
sg63
(lp1242
g189
asbasbasbag56
(g72
g58
NtRp1243
(dp1244
g61
(dp1245
sg70
g821
sg63
(lp1246
g56
(g77
g58
NtRp1247
(dp1248
g61
(dp1249
g81
g82
ssg70
g1243
sg63
(lp1250
S'remote_port'
p1251
asbag56
(g77
g58
NtRp1252
(dp1253
g61
(dp1254
g88
g89
ssg70
g1243
sg63
(lp1255
S':'
asbag56
(g77
g58
NtRp1256
(dp1257
g61
(dp1258
sg70
g1243
sg63
(lp1259
g56
(g57
g58
NtRp1260
(dp1261
g61
(dp1262
g69
I4
ssg70
g1256
sg63
(lp1263
S'58108'
p1264
asbasbasbag56
(g72
g58
NtRp1265
(dp1266
g61
(dp1267
sg70
g821
sg63
(lp1268
g56
(g77
g58
NtRp1269
(dp1270
g61
(dp1271
g81
g82
ssg70
g1265
sg63
(lp1272
S'request_method'
p1273
asbag56
(g77
g58
NtRp1274
(dp1275
g61
(dp1276
g88
g89
ssg70
g1265
sg63
(lp1277
S':'
asbag56
(g77
g58
NtRp1278
(dp1279
g61
(dp1280
sg70
g1265
sg63
(lp1281
g56
(g57
g58
NtRp1282
(dp1283
g61
(dp1284
g69
I4
ssg70
g1278
sg63
(lp1285
S'GET'
p1286
asbasbasbag56
(g72
g58
NtRp1287
(dp1288
g61
(dp1289
sg70
g821
sg63
(lp1290
g56
(g77
g58
NtRp1291
(dp1292
g61
(dp1293
g81
g82
ssg70
g1287
sg63
(lp1294
S'script_name'
p1295
asbag56
(g77
g58
NtRp1296
(dp1297
g61
(dp1298
g88
g89
ssg70
g1287
sg63
(lp1299
S':'
asbag56
(g77
g58
NtRp1300
(dp1301
g61
(dp1302
sg70
g1287
sg63
(lp1303
g56
(g57
g58
NtRp1304
(dp1305
g61
(dp1306
g69
I4
ssg70
g1300
sg63
(lp1307
S''
asbasbasbag56
(g72
g58
NtRp1308
(dp1309
g61
(dp1310
sg70
g821
sg63
(lp1311
g56
(g77
g58
NtRp1312
(dp1313
g61
(dp1314
g81
g82
ssg70
g1308
sg63
(lp1315
S'server_name'
p1316
asbag56
(g77
g58
NtRp1317
(dp1318
g61
(dp1319
g88
g89
ssg70
g1308
sg63
(lp1320
S':'
asbag56
(g77
g58
NtRp1321
(dp1322
g61
(dp1323
sg70
g1308
sg63
(lp1324
g56
(g57
g58
NtRp1325
(dp1326
g61
(dp1327
g69
I4
ssg70
g1321
sg63
(lp1328
S'morfeo'
p1329
asbasbasbag56
(g72
g58
NtRp1330
(dp1331
g61
(dp1332
sg70
g821
sg63
(lp1333
g56
(g77
g58
NtRp1334
(dp1335
g61
(dp1336
g81
g82
ssg70
g1330
sg63
(lp1337
S'server_port'
p1338
asbag56
(g77
g58
NtRp1339
(dp1340
g61
(dp1341
g88
g89
ssg70
g1330
sg63
(lp1342
S':'
asbag56
(g77
g58
NtRp1343
(dp1344
g61
(dp1345
sg70
g1330
sg63
(lp1346
g56
(g57
g58
NtRp1347
(dp1348
g61
(dp1349
g69
I4
ssg70
g1343
sg63
(lp1350
S'8000'
p1351
asbasbasbag56
(g72
g58
NtRp1352
(dp1353
g61
(dp1354
sg70
g821
sg63
(lp1355
g56
(g77
g58
NtRp1356
(dp1357
g61
(dp1358
g81
g82
ssg70
g1352
sg63
(lp1359
S'server_protocol'
p1360
asbag56
(g77
g58
NtRp1361
(dp1362
g61
(dp1363
g88
g89
ssg70
g1352
sg63
(lp1364
S':'
asbag56
(g77
g58
NtRp1365
(dp1366
g61
(dp1367
sg70
g1352
sg63
(lp1368
g56
(g57
g58
NtRp1369
(dp1370
g61
(dp1371
g69
I4
ssg70
g1365
sg63
(lp1372
S'HTTP/1.1'
p1373
asbasbasbag56
(g72
g58
NtRp1374
(dp1375
g61
(dp1376
sg70
g821
sg63
(lp1377
g56
(g77
g58
NtRp1378
(dp1379
g61
(dp1380
g81
g82
ssg70
g1374
sg63
(lp1381
S'server_software'
p1382
asbag56
(g77
g58
NtRp1383
(dp1384
g61
(dp1385
g88
g89
ssg70
g1374
sg63
(lp1386
S':'
asbag56
(g77
g58
NtRp1387
(dp1388
g61
(dp1389
sg70
g1374
sg63
(lp1390
g56
(g57
g58
NtRp1391
(dp1392
g61
(dp1393
g69
I4
ssg70
g1387
sg63
(lp1394
S'Rocket 1.2.2'
p1395
asbasbasbag56
(g72
g58
NtRp1396
(dp1397
g61
(dp1398
sg70
g821
sg63
(lp1399
g56
(g77
g58
NtRp1400
(dp1401
g61
(dp1402
g81
g82
ssg70
g1396
sg63
(lp1403
S'web2py_crontype'
p1404
asbag56
(g77
g58
NtRp1405
(dp1406
g61
(dp1407
g88
g89
ssg70
g1396
sg63
(lp1408
S':'
asbag56
(g77
g58
NtRp1409
(dp1410
g61
(dp1411
sg70
g1396
sg63
(lp1412
g56
(g57
g58
NtRp1413
(dp1414
g61
(dp1415
g69
I4
ssg70
g1409
sg63
(lp1416
S'hard'
p1417
asbasbasbag56
(g72
g58
NtRp1418
(dp1419
g61
(dp1420
sg70
g821
sg63
(lp1421
g56
(g77
g58
NtRp1422
(dp1423
g61
(dp1424
g81
g82
ssg70
g1418
sg63
(lp1425
S'web2py_path'
p1426
asbag56
(g77
g58
NtRp1427
(dp1428
g61
(dp1429
g88
g89
ssg70
g1418
sg63
(lp1430
S':'
asbag56
(g77
g58
NtRp1431
(dp1432
g61
(dp1433
sg70
g1418
sg63
(lp1434
g56
(g57
g58
NtRp1435
(dp1436
g61
(dp1437
g69
I4
ssg70
g1431
sg63
(lp1438
g868
asbasbasbag56
(g72
g58
NtRp1439
(dp1440
g61
(dp1441
sg70
g821
sg63
(lp1442
g56
(g77
g58
NtRp1443
(dp1444
g61
(dp1445
g81
g82
ssg70
g1439
sg63
(lp1446
S'web2py_version'
p1447
asbag56
(g77
g58
NtRp1448
(dp1449
g61
(dp1450
g88
g89
ssg70
g1439
sg63
(lp1451
S':'
asbag56
(g77
g58
NtRp1452
(dp1453
g61
(dp1454
sg70
g1439
sg63
(lp1455
g56
(g57
g58
NtRp1456
(dp1457
g61
(dp1458
g69
I4
ssg70
g1452
sg63
(lp1459
S'Version 1.97.1 (2011-06-26 19:25:44)\n'
p1460
asbasbasbag56
(g72
g58
NtRp1461
(dp1462
g61
(dp1463
sg70
g821
sg63
(lp1464
g56
(g77
g58
NtRp1465
(dp1466
g61
(dp1467
g81
g82
ssg70
g1461
sg63
(lp1468
S'wsgi_errors'
p1469
asbag56
(g77
g58
NtRp1470
(dp1471
g61
(dp1472
g88
g89
ssg70
g1461
sg63
(lp1473
S':'
asbag56
(g77
g58
NtRp1474
(dp1475
g61
(dp1476
sg70
g1461
sg63
(lp1477
g56
(g57
g58
NtRp1478
(dp1479
g61
(dp1480
g69
I4
ssg70
g1474
sg63
(lp1481
S"<open file '<stderr>', mode 'w' at 0x7f76298491e0>"
p1482
asbasbasbag56
(g72
g58
NtRp1483
(dp1484
g61
(dp1485
sg70
g821
sg63
(lp1486
g56
(g77
g58
NtRp1487
(dp1488
g61
(dp1489
g81
g82
ssg70
g1483
sg63
(lp1490
S'wsgi_file_wrapper'
p1491
asbag56
(g77
g58
NtRp1492
(dp1493
g61
(dp1494
g88
g89
ssg70
g1483
sg63
(lp1495
S':'
asbag56
(g77
g58
NtRp1496
(dp1497
g61
(dp1498
sg70
g1483
sg63
(lp1499
g56
(g57
g58
NtRp1500
(dp1501
g61
(dp1502
g69
I4
ssg70
g1496
sg63
(lp1503
S'<class gluon.rocket.FileWrapper at 0x2703fb0>'
p1504
asbasbasbag56
(g72
g58
NtRp1505
(dp1506
g61
(dp1507
sg70
g821
sg63
(lp1508
g56
(g77
g58
NtRp1509
(dp1510
g61
(dp1511
g81
g82
ssg70
g1505
sg63
(lp1512
S'wsgi_input'
p1513
asbag56
(g77
g58
NtRp1514
(dp1515
g61
(dp1516
g88
g89
ssg70
g1505
sg63
(lp1517
S':'
asbag56
(g77
g58
NtRp1518
(dp1519
g61
(dp1520
sg70
g1505
sg63
(lp1521
g56
(g57
g58
NtRp1522
(dp1523
g61
(dp1524
g69
I4
ssg70
g1518
sg63
(lp1525
S'<socket._fileobject object at 0x2ed2750>'
p1526
asbasbasbag56
(g72
g58
NtRp1527
(dp1528
g61
(dp1529
sg70
g821
sg63
(lp1530
g56
(g77
g58
NtRp1531
(dp1532
g61
(dp1533
g81
g82
ssg70
g1527
sg63
(lp1534
S'wsgi_multiprocess'
p1535
asbag56
(g77
g58
NtRp1536
(dp1537
g61
(dp1538
g88
g89
ssg70
g1527
sg63
(lp1539
S':'
asbag56
(g77
g58
NtRp1540
(dp1541
g61
(dp1542
sg70
g1527
sg63
(lp1543
g56
(g57
g58
NtRp1544
(dp1545
g61
(dp1546
g69
I4
ssg70
g1540
sg63
(lp1547
g99
asbasbasbag56
(g72
g58
NtRp1548
(dp1549
g61
(dp1550
sg70
g821
sg63
(lp1551
g56
(g77
g58
NtRp1552
(dp1553
g61
(dp1554
g81
g82
ssg70
g1548
sg63
(lp1555
S'wsgi_multithread'
p1556
asbag56
(g77
g58
NtRp1557
(dp1558
g61
(dp1559
g88
g89
ssg70
g1548
sg63
(lp1560
S':'
asbag56
(g77
g58
NtRp1561
(dp1562
g61
(dp1563
sg70
g1548
sg63
(lp1564
g56
(g57
g58
NtRp1565
(dp1566
g61
(dp1567
g69
I4
ssg70
g1561
sg63
(lp1568
S'True'
p1569
asbasbasbag56
(g72
g58
NtRp1570
(dp1571
g61
(dp1572
sg70
g821
sg63
(lp1573
g56
(g77
g58
NtRp1574
(dp1575
g61
(dp1576
g81
g82
ssg70
g1570
sg63
(lp1577
S'wsgi_run_once'
p1578
asbag56
(g77
g58
NtRp1579
(dp1580
g61
(dp1581
g88
g89
ssg70
g1570
sg63
(lp1582
S':'
asbag56
(g77
g58
NtRp1583
(dp1584
g61
(dp1585
sg70
g1570
sg63
(lp1586
g56
(g57
g58
NtRp1587
(dp1588
g61
(dp1589
g69
I4
ssg70
g1583
sg63
(lp1590
g99
asbasbasbag56
(g72
g58
NtRp1591
(dp1592
g61
(dp1593
sg70
g821
sg63
(lp1594
g56
(g77
g58
NtRp1595
(dp1596
g61
(dp1597
g81
g82
ssg70
g1591
sg63
(lp1598
S'wsgi_url_scheme'
p1599
asbag56
(g77
g58
NtRp1600
(dp1601
g61
(dp1602
g88
g89
ssg70
g1591
sg63
(lp1603
S':'
asbag56
(g77
g58
NtRp1604
(dp1605
g61
(dp1606
sg70
g1591
sg63
(lp1607
g56
(g57
g58
NtRp1608
(dp1609
g61
(dp1610
g69
I4
ssg70
g1604
sg63
(lp1611
S'http'
p1612
asbasbasbag56
(g72
g58
NtRp1613
(dp1614
g61
(dp1615
sg70
g821
sg63
(lp1616
g56
(g77
g58
NtRp1617
(dp1618
g61
(dp1619
g81
g82
ssg70
g1613
sg63
(lp1620
S'wsgi_version'
p1621
asbag56
(g77
g58
NtRp1622
(dp1623
g61
(dp1624
g88
g89
ssg70
g1613
sg63
(lp1625
S':'
asbag56
(g77
g58
NtRp1626
(dp1627
g61
(dp1628
sg70
g1613
sg63
(lp1629
g56
(g57
g58
NtRp1630
(dp1631
g61
(dp1632
g69
I4
ssg70
g1626
sg63
(lp1633
g56
(g65
g58
NtRp1634
(dp1635
g61
(dp1636
g69
I3
ssg70
Nsg63
(lp1637
g56
(g72
g58
NtRp1638
(dp1639
g61
(dp1640
sg70
g1634
sg63
(lp1641
g56
(g77
g58
NtRp1642
(dp1643
g61
(dp1644
sg70
g1638
sg63
(lp1645
g56
(g57
g58
NtRp1646
(dp1647
g61
(dp1648
g69
I3
ssg70
g1642
sg63
(lp1649
S'1'
asbasbasbag56
(g72
g58
NtRp1650
(dp1651
g61
(dp1652
sg70
g1634
sg63
(lp1653
g56
(g77
g58
NtRp1654
(dp1655
g61
(dp1656
sg70
g1650
sg63
(lp1657
g56
(g57
g58
NtRp1658
(dp1659
g61
(dp1660
g69
I3
ssg70
g1654
sg63
(lp1661
S'0'
asbasbasbasbasbasbasbasbasbasbasbag56
(g72
g58
NtRp1662
(dp1663
g61
(dp1664
sg70
g66
sg63
(lp1665
g56
(g77
g58
NtRp1666
(dp1667
g61
(dp1668
g81
g82
ssg70
g1662
sg63
(lp1669
S'extension'
p1670
asbag56
(g77
g58
NtRp1671
(dp1672
g61
(dp1673
g88
g89
ssg70
g1662
sg63
(lp1674
S':'
asbag56
(g77
g58
NtRp1675
(dp1676
g61
(dp1677
sg70
g1662
sg63
(lp1678
g56
(g57
g58
NtRp1679
(dp1680
g61
(dp1681
g69
I5
ssg70
g1675
sg63
(lp1682
S'html'
p1683
asbasbasbag56
(g72
g58
NtRp1684
(dp1685
g61
(dp1686
sg70
g66
sg63
(lp1687
g56
(g77
g58
NtRp1688
(dp1689
g61
(dp1690
g81
g82
ssg70
g1684
sg63
(lp1691
S'folder'
p1692
asbag56
(g77
g58
NtRp1693
(dp1694
g61
(dp1695
g88
g89
ssg70
g1684
sg63
(lp1696
S':'
asbag56
(g77
g58
NtRp1697
(dp1698
g61
(dp1699
sg70
g1684
sg63
(lp1700
g56
(g57
g58
NtRp1701
(dp1702
g61
(dp1703
g69
I5
ssg70
g1697
sg63
(lp1704
S'/home/diazluis2007/web2py/applications/scec/'
p1705
asbasbasbag56
(g72
g58
NtRp1706
(dp1707
g61
(dp1708
sg70
g66
sg63
(lp1709
g56
(g77
g58
NtRp1710
(dp1711
g61
(dp1712
g81
g82
ssg70
g1706
sg63
(lp1713
S'function'
p1714
asbag56
(g77
g58
NtRp1715
(dp1716
g61
(dp1717
g88
g89
ssg70
g1706
sg63
(lp1718
S':'
asbag56
(g77
g58
NtRp1719
(dp1720
g61
(dp1721
sg70
g1706
sg63
(lp1722
g56
(g57
g58
NtRp1723
(dp1724
g61
(dp1725
g69
I5
ssg70
g1719
sg63
(lp1726
S'setup'
p1727
asbasbasbag56
(g72
g58
NtRp1728
(dp1729
g61
(dp1730
sg70
g66
sg63
(lp1731
g56
(g77
g58
NtRp1732
(dp1733
g61
(dp1734
g81
g82
ssg70
g1728
sg63
(lp1735
S'get_vars'
p1736
asbag56
(g77
g58
NtRp1737
(dp1738
g61
(dp1739
g88
g89
ssg70
g1728
sg63
(lp1740
S':'
asbag56
(g77
g58
NtRp1741
(dp1742
g61
(dp1743
sg70
g1728
sg63
(lp1744
g56
(g57
g58
NtRp1745
(dp1746
g61
(dp1747
g69
I5
ssg70
g1741
sg63
(lp1748
g56
(g65
g58
NtRp1749
(dp1750
g61
(dp1751
g69
I4
ssg70
Nsg63
(lp1752
sbasbasbasbag56
(g72
g58
NtRp1753
(dp1754
g61
(dp1755
sg70
g66
sg63
(lp1756
g56
(g77
g58
NtRp1757
(dp1758
g61
(dp1759
g81
g82
ssg70
g1753
sg63
(lp1760
S'is_https'
p1761
asbag56
(g77
g58
NtRp1762
(dp1763
g61
(dp1764
g88
g89
ssg70
g1753
sg63
(lp1765
S':'
asbag56
(g77
g58
NtRp1766
(dp1767
g61
(dp1768
sg70
g1753
sg63
(lp1769
g56
(g57
g58
NtRp1770
(dp1771
g61
(dp1772
g69
I5
ssg70
g1766
sg63
(lp1773
g99
asbasbasbag56
(g72
g58
NtRp1774
(dp1775
g61
(dp1776
sg70
g66
sg63
(lp1777
g56
(g77
g58
NtRp1778
(dp1779
g61
(dp1780
g81
g82
ssg70
g1774
sg63
(lp1781
S'is_local'
p1782
asbag56
(g77
g58
NtRp1783
(dp1784
g61
(dp1785
g88
g89
ssg70
g1774
sg63
(lp1786
S':'
asbag56
(g77
g58
NtRp1787
(dp1788
g61
(dp1789
sg70
g1774
sg63
(lp1790
g56
(g57
g58
NtRp1791
(dp1792
g61
(dp1793
g69
I5
ssg70
g1787
sg63
(lp1794
g1569
asbasbasbag56
(g72
g58
NtRp1795
(dp1796
g61
(dp1797
sg70
g66
sg63
(lp1798
g56
(g77
g58
NtRp1799
(dp1800
g61
(dp1801
g81
g82
ssg70
g1795
sg63
(lp1802
S'is_restful'
p1803
asbag56
(g77
g58
NtRp1804
(dp1805
g61
(dp1806
g88
g89
ssg70
g1795
sg63
(lp1807
S':'
asbag56
(g77
g58
NtRp1808
(dp1809
g61
(dp1810
sg70
g1795
sg63
(lp1811
g56
(g57
g58
NtRp1812
(dp1813
g61
(dp1814
g69
I5
ssg70
g1808
sg63
(lp1815
g99
asbasbasbag56
(g72
g58
NtRp1816
(dp1817
g61
(dp1818
sg70
g66
sg63
(lp1819
g56
(g77
g58
NtRp1820
(dp1821
g61
(dp1822
g81
g82
ssg70
g1816
sg63
(lp1823
S'now'
p1824
asbag56
(g77
g58
NtRp1825
(dp1826
g61
(dp1827
g88
g89
ssg70
g1816
sg63
(lp1828
S':'
asbag56
(g77
g58
NtRp1829
(dp1830
g61
(dp1831
sg70
g1816
sg63
(lp1832
g56
(g57
g58
NtRp1833
(dp1834
g61
(dp1835
g69
I5
ssg70
g1829
sg63
(lp1836
S'datetime.datetime(2011, 7, 31, 16, 29, 37, 233526)'
p1837
asbasbasbag56
(g72
g58
NtRp1838
(dp1839
g61
(dp1840
sg70
g66
sg63
(lp1841
g56
(g77
g58
NtRp1842
(dp1843
g61
(dp1844
g81
g82
ssg70
g1838
sg63
(lp1845
S'post_vars'
p1846
asbag56
(g77
g58
NtRp1847
(dp1848
g61
(dp1849
g88
g89
ssg70
g1838
sg63
(lp1850
S':'
asbag56
(g77
g58
NtRp1851
(dp1852
g61
(dp1853
sg70
g1838
sg63
(lp1854
g56
(g57
g58
NtRp1855
(dp1856
g61
(dp1857
g69
I5
ssg70
g1851
sg63
(lp1858
g56
(g65
g58
NtRp1859
(dp1860
g61
(dp1861
g69
I4
ssg70
Nsg63
(lp1862
sbasbasbasbag56
(g72
g58
NtRp1863
(dp1864
g61
(dp1865
sg70
g66
sg63
(lp1866
g56
(g77
g58
NtRp1867
(dp1868
g61
(dp1869
g81
g82
ssg70
g1863
sg63
(lp1870
S'url'
p1871
asbag56
(g77
g58
NtRp1872
(dp1873
g61
(dp1874
g88
g89
ssg70
g1863
sg63
(lp1875
S':'
asbag56
(g77
g58
NtRp1876
(dp1877
g61
(dp1878
sg70
g1863
sg63
(lp1879
g56
(g57
g58
NtRp1880
(dp1881
g61
(dp1882
g69
I5
ssg70
g1876
sg63
(lp1883
S'/scec/default/setup'
p1884
asbasbasbag56
(g72
g58
NtRp1885
(dp1886
g61
(dp1887
sg70
g66
sg63
(lp1888
g56
(g77
g58
NtRp1889
(dp1890
g61
(dp1891
g81
g82
ssg70
g1885
sg63
(lp1892
S'uuid'
p1893
asbag56
(g77
g58
NtRp1894
(dp1895
g61
(dp1896
g88
g89
ssg70
g1885
sg63
(lp1897
S':'
asbag56
(g77
g58
NtRp1898
(dp1899
g61
(dp1900
sg70
g1885
sg63
(lp1901
g56
(g57
g58
NtRp1902
(dp1903
g61
(dp1904
g69
I5
ssg70
g1898
sg63
(lp1905
S'scec/127.0.0.1.2011-07-31.16-29-37.51e7dcdd-dc93-4e22-b9e0-cc2fe1aace28'
p1906
asbasbasbag56
(g72
g58
NtRp1907
(dp1908
g61
(dp1909
sg70
g66
sg63
(lp1910
g56
(g77
g58
NtRp1911
(dp1912
g61
(dp1913
g81
g82
ssg70
g1907
sg63
(lp1914
S'vars'
p1915
asbag56
(g77
g58
NtRp1916
(dp1917
g61
(dp1918
g88
g89
ssg70
g1907
sg63
(lp1919
S':'
asbag56
(g77
g58
NtRp1920
(dp1921
g61
(dp1922
sg70
g1907
sg63
(lp1923
g56
(g57
g58
NtRp1924
(dp1925
g61
(dp1926
g69
I5
ssg70
g1920
sg63
(lp1927
g56
(g65
g58
NtRp1928
(dp1929
g61
(dp1930
g69
I4
ssg70
Nsg63
(lp1931
sbasbasbasbag56
(g72
g58
NtRp1932
(dp1933
g61
(dp1934
sg70
g66
sg63
(lp1935
g56
(g77
g58
NtRp1936
(dp1937
g61
(dp1938
g81
g82
ssg70
g1932
sg63
(lp1939
S'wsgi'
p1940
asbag56
(g77
g58
NtRp1941
(dp1942
g61
(dp1943
g88
g89
ssg70
g1932
sg63
(lp1944
S':'
asbag56
(g77
g58
NtRp1945
(dp1946
g61
(dp1947
sg70
g1932
sg63
(lp1948
g56
(g57
g58
NtRp1949
(dp1950
g61
(dp1951
g69
I5
ssg70
g1945
sg63
(lp1952
g56
(g65
g58
NtRp1953
(dp1954
g61
(dp1955
g69
I4
ssg70
Nsg63
(lp1956
g56
(g72
g58
NtRp1957
(dp1958
g61
(dp1959
sg70
g1953
sg63
(lp1960
g56
(g77
g58
NtRp1961
(dp1962
g61
(dp1963
g81
g82
ssg70
g1957
sg63
(lp1964
S'environ'
p1965
asbag56
(g77
g58
NtRp1966
(dp1967
g61
(dp1968
g88
g89
ssg70
g1957
sg63
(lp1969
S':'
asbag56
(g77
g58
NtRp1970
(dp1971
g61
(dp1972
sg70
g1957
sg63
(lp1973
g56
(g57
g58
NtRp1974
(dp1975
g61
(dp1976
g69
I4
ssg70
g1970
sg63
(lp1977
g56
(g65
g58
NtRp1978
(dp1979
g61
(dp1980
g69
I3
ssg70
Nsg63
(lp1981
g56
(g72
g58
NtRp1982
(dp1983
g61
(dp1984
sg70
g1978
sg63
(lp1985
g56
(g77
g58
NtRp1986
(dp1987
g61
(dp1988
g81
g82
ssg70
g1982
sg63
(lp1989
S'HTTP_ACCEPT'
p1990
asbag56
(g77
g58
NtRp1991
(dp1992
g61
(dp1993
g88
g89
ssg70
g1982
sg63
(lp1994
S':'
asbag56
(g77
g58
NtRp1995
(dp1996
g61
(dp1997
sg70
g1982
sg63
(lp1998
g56
(g57
g58
NtRp1999
(dp2000
g61
(dp2001
g69
I3
ssg70
g1995
sg63
(lp2002
g1002
asbasbasbag56
(g72
g58
NtRp2003
(dp2004
g61
(dp2005
sg70
g1978
sg63
(lp2006
g56
(g77
g58
NtRp2007
(dp2008
g61
(dp2009
g81
g82
ssg70
g2003
sg63
(lp2010
S'HTTP_ACCEPT_CHARSET'
p2011
asbag56
(g77
g58
NtRp2012
(dp2013
g61
(dp2014
g88
g89
ssg70
g2003
sg63
(lp2015
S':'
asbag56
(g77
g58
NtRp2016
(dp2017
g61
(dp2018
sg70
g2003
sg63
(lp2019
g56
(g57
g58
NtRp2020
(dp2021
g61
(dp2022
g69
I3
ssg70
g2016
sg63
(lp2023
g1024
asbasbasbag56
(g72
g58
NtRp2024
(dp2025
g61
(dp2026
sg70
g1978
sg63
(lp2027
g56
(g77
g58
NtRp2028
(dp2029
g61
(dp2030
g81
g82
ssg70
g2024
sg63
(lp2031
S'HTTP_ACCEPT_ENCODING'
p2032
asbag56
(g77
g58
NtRp2033
(dp2034
g61
(dp2035
g88
g89
ssg70
g2024
sg63
(lp2036
S':'
asbag56
(g77
g58
NtRp2037
(dp2038
g61
(dp2039
sg70
g2024
sg63
(lp2040
g56
(g57
g58
NtRp2041
(dp2042
g61
(dp2043
g69
I3
ssg70
g2037
sg63
(lp2044
g1046
asbasbasbag56
(g72
g58
NtRp2045
(dp2046
g61
(dp2047
sg70
g1978
sg63
(lp2048
g56
(g77
g58
NtRp2049
(dp2050
g61
(dp2051
g81
g82
ssg70
g2045
sg63
(lp2052
S'HTTP_ACCEPT_LANGUAGE'
p2053
asbag56
(g77
g58
NtRp2054
(dp2055
g61
(dp2056
g88
g89
ssg70
g2045
sg63
(lp2057
S':'
asbag56
(g77
g58
NtRp2058
(dp2059
g61
(dp2060
sg70
g2045
sg63
(lp2061
g56
(g57
g58
NtRp2062
(dp2063
g61
(dp2064
g69
I3
ssg70
g2058
sg63
(lp2065
g1068
asbasbasbag56
(g72
g58
NtRp2066
(dp2067
g61
(dp2068
sg70
g1978
sg63
(lp2069
g56
(g77
g58
NtRp2070
(dp2071
g61
(dp2072
g81
g82
ssg70
g2066
sg63
(lp2073
S'HTTP_CACHE_CONTROL'
p2074
asbag56
(g77
g58
NtRp2075
(dp2076
g61
(dp2077
g88
g89
ssg70
g2066
sg63
(lp2078
S':'
asbag56
(g77
g58
NtRp2079
(dp2080
g61
(dp2081
sg70
g2066
sg63
(lp2082
g56
(g57
g58
NtRp2083
(dp2084
g61
(dp2085
g69
I3
ssg70
g2079
sg63
(lp2086
g1090
asbasbasbag56
(g72
g58
NtRp2087
(dp2088
g61
(dp2089
sg70
g1978
sg63
(lp2090
g56
(g77
g58
NtRp2091
(dp2092
g61
(dp2093
g81
g82
ssg70
g2087
sg63
(lp2094
S'HTTP_CONNECTION'
p2095
asbag56
(g77
g58
NtRp2096
(dp2097
g61
(dp2098
g88
g89
ssg70
g2087
sg63
(lp2099
S':'
asbag56
(g77
g58
NtRp2100
(dp2101
g61
(dp2102
sg70
g2087
sg63
(lp2103
g56
(g57
g58
NtRp2104
(dp2105
g61
(dp2106
g69
I3
ssg70
g2100
sg63
(lp2107
g1112
asbasbasbag56
(g72
g58
NtRp2108
(dp2109
g61
(dp2110
sg70
g1978
sg63
(lp2111
g56
(g77
g58
NtRp2112
(dp2113
g61
(dp2114
g81
g82
ssg70
g2108
sg63
(lp2115
S'HTTP_COOKIE'
p2116
asbag56
(g77
g58
NtRp2117
(dp2118
g61
(dp2119
g88
g89
ssg70
g2108
sg63
(lp2120
S':'
asbag56
(g77
g58
NtRp2121
(dp2122
g61
(dp2123
sg70
g2108
sg63
(lp2124
g56
(g57
g58
NtRp2125
(dp2126
g61
(dp2127
g69
I3
ssg70
g2121
sg63
(lp2128
g1134
asbasbasbag56
(g72
g58
NtRp2129
(dp2130
g61
(dp2131
sg70
g1978
sg63
(lp2132
g56
(g77
g58
NtRp2133
(dp2134
g61
(dp2135
g81
g82
ssg70
g2129
sg63
(lp2136
S'HTTP_HOST'
p2137
asbag56
(g77
g58
NtRp2138
(dp2139
g61
(dp2140
g88
g89
ssg70
g2129
sg63
(lp2141
S':'
asbag56
(g77
g58
NtRp2142
(dp2143
g61
(dp2144
sg70
g2129
sg63
(lp2145
g56
(g57
g58
NtRp2146
(dp2147
g61
(dp2148
g69
I3
ssg70
g2142
sg63
(lp2149
g1156
asbasbasbag56
(g72
g58
NtRp2150
(dp2151
g61
(dp2152
sg70
g1978
sg63
(lp2153
g56
(g77
g58
NtRp2154
(dp2155
g61
(dp2156
g81
g82
ssg70
g2150
sg63
(lp2157
S'HTTP_USER_AGENT'
p2158
asbag56
(g77
g58
NtRp2159
(dp2160
g61
(dp2161
g88
g89
ssg70
g2150
sg63
(lp2162
S':'
asbag56
(g77
g58
NtRp2163
(dp2164
g61
(dp2165
sg70
g2150
sg63
(lp2166
g56
(g57
g58
NtRp2167
(dp2168
g61
(dp2169
g69
I3
ssg70
g2163
sg63
(lp2170
g1178
asbasbasbag56
(g72
g58
NtRp2171
(dp2172
g61
(dp2173
sg70
g1978
sg63
(lp2174
g56
(g77
g58
NtRp2175
(dp2176
g61
(dp2177
g81
g82
ssg70
g2171
sg63
(lp2178
S'PATH_INFO'
p2179
asbag56
(g77
g58
NtRp2180
(dp2181
g61
(dp2182
g88
g89
ssg70
g2171
sg63
(lp2183
S':'
asbag56
(g77
g58
NtRp2184
(dp2185
g61
(dp2186
sg70
g2171
sg63
(lp2187
g56
(g57
g58
NtRp2188
(dp2189
g61
(dp2190
g69
I3
ssg70
g2184
sg63
(lp2191
g1200
asbasbasbag56
(g72
g58
NtRp2192
(dp2193
g61
(dp2194
sg70
g1978
sg63
(lp2195
g56
(g77
g58
NtRp2196
(dp2197
g61
(dp2198
g81
g82
ssg70
g2192
sg63
(lp2199
S'QUERY_STRING'
p2200
asbag56
(g77
g58
NtRp2201
(dp2202
g61
(dp2203
g88
g89
ssg70
g2192
sg63
(lp2204
S':'
asbag56
(g77
g58
NtRp2205
(dp2206
g61
(dp2207
sg70
g2192
sg63
(lp2208
g56
(g57
g58
NtRp2209
(dp2210
g61
(dp2211
g69
I3
ssg70
g2205
sg63
(lp2212
S''
asbasbasbag56
(g72
g58
NtRp2213
(dp2214
g61
(dp2215
sg70
g1978
sg63
(lp2216
g56
(g77
g58
NtRp2217
(dp2218
g61
(dp2219
g81
g82
ssg70
g2213
sg63
(lp2220
S'REMOTE_ADDR'
p2221
asbag56
(g77
g58
NtRp2222
(dp2223
g61
(dp2224
g88
g89
ssg70
g2213
sg63
(lp2225
S':'
asbag56
(g77
g58
NtRp2226
(dp2227
g61
(dp2228
sg70
g2213
sg63
(lp2229
g56
(g57
g58
NtRp2230
(dp2231
g61
(dp2232
g69
I3
ssg70
g2226
sg63
(lp2233
g189
asbasbasbag56
(g72
g58
NtRp2234
(dp2235
g61
(dp2236
sg70
g1978
sg63
(lp2237
g56
(g77
g58
NtRp2238
(dp2239
g61
(dp2240
g81
g82
ssg70
g2234
sg63
(lp2241
S'REMOTE_PORT'
p2242
asbag56
(g77
g58
NtRp2243
(dp2244
g61
(dp2245
g88
g89
ssg70
g2234
sg63
(lp2246
S':'
asbag56
(g77
g58
NtRp2247
(dp2248
g61
(dp2249
sg70
g2234
sg63
(lp2250
g56
(g57
g58
NtRp2251
(dp2252
g61
(dp2253
g69
I3
ssg70
g2247
sg63
(lp2254
g1264
asbasbasbag56
(g72
g58
NtRp2255
(dp2256
g61
(dp2257
sg70
g1978
sg63
(lp2258
g56
(g77
g58
NtRp2259
(dp2260
g61
(dp2261
g81
g82
ssg70
g2255
sg63
(lp2262
S'REQUEST_METHOD'
p2263
asbag56
(g77
g58
NtRp2264
(dp2265
g61
(dp2266
g88
g89
ssg70
g2255
sg63
(lp2267
S':'
asbag56
(g77
g58
NtRp2268
(dp2269
g61
(dp2270
sg70
g2255
sg63
(lp2271
g56
(g57
g58
NtRp2272
(dp2273
g61
(dp2274
g69
I3
ssg70
g2268
sg63
(lp2275
g1286
asbasbasbag56
(g72
g58
NtRp2276
(dp2277
g61
(dp2278
sg70
g1978
sg63
(lp2279
g56
(g77
g58
NtRp2280
(dp2281
g61
(dp2282
g81
g82
ssg70
g2276
sg63
(lp2283
S'SCRIPT_NAME'
p2284
asbag56
(g77
g58
NtRp2285
(dp2286
g61
(dp2287
g88
g89
ssg70
g2276
sg63
(lp2288
S':'
asbag56
(g77
g58
NtRp2289
(dp2290
g61
(dp2291
sg70
g2276
sg63
(lp2292
g56
(g57
g58
NtRp2293
(dp2294
g61
(dp2295
g69
I3
ssg70
g2289
sg63
(lp2296
S''
asbasbasbag56
(g72
g58
NtRp2297
(dp2298
g61
(dp2299
sg70
g1978
sg63
(lp2300
g56
(g77
g58
NtRp2301
(dp2302
g61
(dp2303
g81
g82
ssg70
g2297
sg63
(lp2304
S'SERVER_NAME'
p2305
asbag56
(g77
g58
NtRp2306
(dp2307
g61
(dp2308
g88
g89
ssg70
g2297
sg63
(lp2309
S':'
asbag56
(g77
g58
NtRp2310
(dp2311
g61
(dp2312
sg70
g2297
sg63
(lp2313
g56
(g57
g58
NtRp2314
(dp2315
g61
(dp2316
g69
I3
ssg70
g2310
sg63
(lp2317
g1329
asbasbasbag56
(g72
g58
NtRp2318
(dp2319
g61
(dp2320
sg70
g1978
sg63
(lp2321
g56
(g77
g58
NtRp2322
(dp2323
g61
(dp2324
g81
g82
ssg70
g2318
sg63
(lp2325
S'SERVER_PORT'
p2326
asbag56
(g77
g58
NtRp2327
(dp2328
g61
(dp2329
g88
g89
ssg70
g2318
sg63
(lp2330
S':'
asbag56
(g77
g58
NtRp2331
(dp2332
g61
(dp2333
sg70
g2318
sg63
(lp2334
g56
(g57
g58
NtRp2335
(dp2336
g61
(dp2337
g69
I3
ssg70
g2331
sg63
(lp2338
g1351
asbasbasbag56
(g72
g58
NtRp2339
(dp2340
g61
(dp2341
sg70
g1978
sg63
(lp2342
g56
(g77
g58
NtRp2343
(dp2344
g61
(dp2345
g81
g82
ssg70
g2339
sg63
(lp2346
S'SERVER_PROTOCOL'
p2347
asbag56
(g77
g58
NtRp2348
(dp2349
g61
(dp2350
g88
g89
ssg70
g2339
sg63
(lp2351
S':'
asbag56
(g77
g58
NtRp2352
(dp2353
g61
(dp2354
sg70
g2339
sg63
(lp2355
g56
(g57
g58
NtRp2356
(dp2357
g61
(dp2358
g69
I3
ssg70
g2352
sg63
(lp2359
g1373
asbasbasbag56
(g72
g58
NtRp2360
(dp2361
g61
(dp2362
sg70
g1978
sg63
(lp2363
g56
(g77
g58
NtRp2364
(dp2365
g61
(dp2366
g81
g82
ssg70
g2360
sg63
(lp2367
S'SERVER_SOFTWARE'
p2368
asbag56
(g77
g58
NtRp2369
(dp2370
g61
(dp2371
g88
g89
ssg70
g2360
sg63
(lp2372
S':'
asbag56
(g77
g58
NtRp2373
(dp2374
g61
(dp2375
sg70
g2360
sg63
(lp2376
g56
(g57
g58
NtRp2377
(dp2378
g61
(dp2379
g69
I3
ssg70
g2373
sg63
(lp2380
g1395
asbasbasbag56
(g72
g58
NtRp2381
(dp2382
g61
(dp2383
sg70
g1978
sg63
(lp2384
g56
(g77
g58
NtRp2385
(dp2386
g61
(dp2387
g81
g82
ssg70
g2381
sg63
(lp2388
S'wsgi.errors'
p2389
asbag56
(g77
g58
NtRp2390
(dp2391
g61
(dp2392
g88
g89
ssg70
g2381
sg63
(lp2393
S':'
asbag56
(g77
g58
NtRp2394
(dp2395
g61
(dp2396
sg70
g2381
sg63
(lp2397
g56
(g57
g58
NtRp2398
(dp2399
g61
(dp2400
g69
I3
ssg70
g2394
sg63
(lp2401
S"<open file '<stderr>', mode 'w' at 0x7f76298491e0>"
p2402
asbasbasbag56
(g72
g58
NtRp2403
(dp2404
g61
(dp2405
sg70
g1978
sg63
(lp2406
g56
(g77
g58
NtRp2407
(dp2408
g61
(dp2409
g81
g82
ssg70
g2403
sg63
(lp2410
S'wsgi.file_wrapper'
p2411
asbag56
(g77
g58
NtRp2412
(dp2413
g61
(dp2414
g88
g89
ssg70
g2403
sg63
(lp2415
S':'
asbag56
(g77
g58
NtRp2416
(dp2417
g61
(dp2418
sg70
g2403
sg63
(lp2419
g56
(g57
g58
NtRp2420
(dp2421
g61
(dp2422
g69
I3
ssg70
g2416
sg63
(lp2423
S'<class gluon.rocket.FileWrapper at 0x2703fb0>'
p2424
asbasbasbag56
(g72
g58
NtRp2425
(dp2426
g61
(dp2427
sg70
g1978
sg63
(lp2428
g56
(g77
g58
NtRp2429
(dp2430
g61
(dp2431
g81
g82
ssg70
g2425
sg63
(lp2432
S'wsgi.input'
p2433
asbag56
(g77
g58
NtRp2434
(dp2435
g61
(dp2436
g88
g89
ssg70
g2425
sg63
(lp2437
S':'
asbag56
(g77
g58
NtRp2438
(dp2439
g61
(dp2440
sg70
g2425
sg63
(lp2441
g56
(g57
g58
NtRp2442
(dp2443
g61
(dp2444
g69
I3
ssg70
g2438
sg63
(lp2445
S'<cStringIO.StringO object at 0x3184768>'
p2446
asbasbasbag56
(g72
g58
NtRp2447
(dp2448
g61
(dp2449
sg70
g1978
sg63
(lp2450
g56
(g77
g58
NtRp2451
(dp2452
g61
(dp2453
g81
g82
ssg70
g2447
sg63
(lp2454
S'wsgi.multiprocess'
p2455
asbag56
(g77
g58
NtRp2456
(dp2457
g61
(dp2458
g88
g89
ssg70
g2447
sg63
(lp2459
S':'
asbag56
(g77
g58
NtRp2460
(dp2461
g61
(dp2462
sg70
g2447
sg63
(lp2463
g56
(g57
g58
NtRp2464
(dp2465
g61
(dp2466
g69
I3
ssg70
g2460
sg63
(lp2467
g99
asbasbasbag56
(g72
g58
NtRp2468
(dp2469
g61
(dp2470
sg70
g1978
sg63
(lp2471
g56
(g77
g58
NtRp2472
(dp2473
g61
(dp2474
g81
g82
ssg70
g2468
sg63
(lp2475
S'wsgi.multithread'
p2476
asbag56
(g77
g58
NtRp2477
(dp2478
g61
(dp2479
g88
g89
ssg70
g2468
sg63
(lp2480
S':'
asbag56
(g77
g58
NtRp2481
(dp2482
g61
(dp2483
sg70
g2468
sg63
(lp2484
g56
(g57
g58
NtRp2485
(dp2486
g61
(dp2487
g69
I3
ssg70
g2481
sg63
(lp2488
g1569
asbasbasbag56
(g72
g58
NtRp2489
(dp2490
g61
(dp2491
sg70
g1978
sg63
(lp2492
g56
(g77
g58
NtRp2493
(dp2494
g61
(dp2495
g81
g82
ssg70
g2489
sg63
(lp2496
S'wsgi.run_once'
p2497
asbag56
(g77
g58
NtRp2498
(dp2499
g61
(dp2500
g88
g89
ssg70
g2489
sg63
(lp2501
S':'
asbag56
(g77
g58
NtRp2502
(dp2503
g61
(dp2504
sg70
g2489
sg63
(lp2505
g56
(g57
g58
NtRp2506
(dp2507
g61
(dp2508
g69
I3
ssg70
g2502
sg63
(lp2509
g99
asbasbasbag56
(g72
g58
NtRp2510
(dp2511
g61
(dp2512
sg70
g1978
sg63
(lp2513
g56
(g77
g58
NtRp2514
(dp2515
g61
(dp2516
g81
g82
ssg70
g2510
sg63
(lp2517
S'wsgi.url_scheme'
p2518
asbag56
(g77
g58
NtRp2519
(dp2520
g61
(dp2521
g88
g89
ssg70
g2510
sg63
(lp2522
S':'
asbag56
(g77
g58
NtRp2523
(dp2524
g61
(dp2525
sg70
g2510
sg63
(lp2526
g56
(g57
g58
NtRp2527
(dp2528
g61
(dp2529
g69
I3
ssg70
g2523
sg63
(lp2530
g1612
asbasbasbag56
(g72
g58
NtRp2531
(dp2532
g61
(dp2533
sg70
g1978
sg63
(lp2534
g56
(g77
g58
NtRp2535
(dp2536
g61
(dp2537
g81
g82
ssg70
g2531
sg63
(lp2538
S'wsgi.version'
p2539
asbag56
(g77
g58
NtRp2540
(dp2541
g61
(dp2542
g88
g89
ssg70
g2531
sg63
(lp2543
S':'
asbag56
(g77
g58
NtRp2544
(dp2545
g61
(dp2546
sg70
g2531
sg63
(lp2547
g56
(g57
g58
NtRp2548
(dp2549
g61
(dp2550
g69
I3
ssg70
g2544
sg63
(lp2551
S'1'
asbasbasbasbasbasbasbasbasbasbasbasbasbsS'frames'
p2552
(lp2553
(dp2554
S'file'
p2555
S'/home/diazluis2007/web2py/gluon/restricted.py'
p2556
sS'dump'
p2557
(dp2558
S'environment'
p2559
S"{'A': <class 'gluon.html.A'>, 'Auth': <class 'gluon.tools.Auth'>, 'B': <class 'gluon.html.B'>, 'BEAUTIFY': <class 'gluon.html.BEAUTIFY'>, 'BODY': <class 'gluon.html.BODY'>, 'BR': <class 'gluon.html.BR'>, 'BUTTON': <class 'gluon.html.BUTTON'>, 'CENTER': <class 'gluon.html.CENTER'>, 'CLEANUP': <class 'gluon.validators.CLEANUP'>, 'CODE': <class 'gluon.html.CODE'>, ...}"
p2560
sS'ccode'
p2561
S'<code object <module> at 0x46406c0, file "/home/...plications/scec/controllers/default.py", line 12>'
p2562
ssS'lnum'
p2563
I192
sS'lines'
p2564
(dp2565
I192
S'        exec ccode in environment'
p2566
sI193
S'    except HTTP:'
p2567
sI194
S'        raise'
p2568
sI195
S'    except Exception:'
p2569
sI196
S'        # XXX Show exception in Wing IDE if running in debugger'
p2570
sI187
S'    try:'
p2571
sI188
S'        if type(code) == types.CodeType:'
p2572
sI189
S'            ccode = code'
p2573
sI190
S'        else:'
p2574
sI191
S'            ccode = compile2(code,layer)'
p2575
ssS'call'
p2576
S"(code='# -*- coding: utf-8 -*-\\n# this file is released ...\\n\\n\\n\\n\\n\\n\\n\\n\\n\\nresponse._vars=response._caller(setup)\\n', environment={'A': <class 'gluon.html.A'>, 'Auth': <class 'gluon.tools.Auth'>, 'B': <class 'gluon.html.B'>, 'BEAUTIFY': <class 'gluon.html.BEAUTIFY'>, 'BODY': <class 'gluon.html.BODY'>, 'BR': <class 'gluon.html.BR'>, 'BUTTON': <class 'gluon.html.BUTTON'>, 'CENTER': <class 'gluon.html.CENTER'>, 'CLEANUP': <class 'gluon.validators.CLEANUP'>, 'CODE': <class 'gluon.html.CODE'>, ...}, layer='/home/diazluis2007/web2py/applications/scec/controllers/default.py')"
p2577
sS'func'
p2578
S'restricted'
p2579
sa(dp2580
g2555
S'/home/diazluis2007/web2py/applications/scec/controllers/default.py'
p2581
sg2557
(dp2582
sg2563
I157
sg2564
(dp2583
I146
S''
sI147
S''
sI148
S''
sI149
S''
sI150
S''
sI151
S''
sI152
S''
sI153
S''
sI154
S''
sI155
S''
ssg2576
S'()'
p2584
sg2578
S'<module>'
p2585
sa(dp2586
g2555
S'/home/diazluis2007/web2py/gluon/globals.py'
p2587
sg2557
(dp2588
S'self'
p2589
S'undefined'
p2590
sS'f'
S'<function setup>'
p2591
ssg2563
I137
sg2564
(dp2592
I132
S"        self.flash = ''           # used by the default view layout"
p2593
sI133
S'        self.meta = Storage()     # used by web2py_ajax.html'
p2594
sI134
S'        self.menu = []            # used by the default view layout'
p2595
sI135
S'        self.files = []           # used by web2py_ajax.html'
p2596
sI136
S'        self._vars = None'
p2597
sI137
S'        self._caller = lambda f: f()'
p2598
sI138
S'        self._view_environment = None'
p2599
sI139
S'        self._custom_commit = None'
p2600
sI140
S'        self._custom_rollback = None'
p2601
sI141
S''
ssg2576
S'(f=<function setup>)'
p2602
sg2578
S'<lambda>'
p2603
sa(dp2604
g2555
S'/home/diazluis2007/web2py/applications/scec/controllers/default.py'
p2605
sg2557
(dp2606
S'global db'
p2607
S"<DAL {'auth_event': <Table {'origin': <gluon.dal..., 'id': <gluon.dal.Field object at 0x45d4bd0>}>}>"
p2608
sS'db.auth_membership.id'
p2609
S'<gluon.dal.Field object>'
p2610
sS'user_id'
p2611
g2590
sS'db.auth_membership'
p2612
S"<Table {'ALL': <gluon.dal.SQLALL object at 0x463...0>, 'id': <gluon.dal.Field object at 0x463b250>}>"
p2613
ssg2563
I123
sg2564
(dp2614
I118
S'        #-----------'
p2615
sI119
S''
sI120
S''
sI121
S'        #agrega al administrador al grupo admin'
p2616
sI122
S"        auth.add_membership('admin', id_user)"
p2617
sI123
S'        db(db.auth_membership.id<>user_id).delete()'
p2618
sI124
S'        #-----------'
p2619
sI125
S''
sI126
S''
sI127
S"        response.flash = 'Configuracion de admin realizada'"
p2620
ssg2576
S'()'
p2621
sg2578
S'setup'
p2622
sasS'pyver'
p2623
S'Python 2.6.6: /usr/bin/python'
p2624
sS'session'
p2625
g56
(g57
g58
NtRp2626
(dp2627
g61
(dp2628
sg63
(lp2629
g56
(g65
g58
NtRp2630
(dp2631
g61
(dp2632
g69
I5
ssg70
Nsg63
(lp2633
g56
(g72
g58
NtRp2634
(dp2635
g61
(dp2636
sg70
g2630
sg63
(lp2637
g56
(g77
g58
NtRp2638
(dp2639
g61
(dp2640
g81
g82
ssg70
g2634
sg63
(lp2641
S'last_query'
p2642
asbag56
(g77
g58
NtRp2643
(dp2644
g61
(dp2645
g88
g89
ssg70
g2634
sg63
(lp2646
S':'
asbag56
(g77
g58
NtRp2647
(dp2648
g61
(dp2649
sg70
g2634
sg63
(lp2650
g56
(g57
g58
NtRp2651
(dp2652
g61
(dp2653
g69
I5
ssg70
g2647
sg63
(lp2654
S'db.auth_group.id>0'
p2655
asbasbasbasbasbsS'etype'
p2656
S"<type 'exceptions.NameError'>"
p2657
sS'date'
p2658
S'Sun Jul 31 16:29:37 2011'
p2659
sS'response'
p2660
g56
(g57
g58
NtRp2661
(dp2662
g61
(dp2663
sg63
(lp2664
g56
(g65
g58
NtRp2665
(dp2666
g61
(dp2667
g69
I5
ssg70
Nsg63
(lp2668
g56
(g72
g58
NtRp2669
(dp2670
g61
(dp2671
sg70
g2665
sg63
(lp2672
g56
(g77
g58
NtRp2673
(dp2674
g61
(dp2675
g81
g82
ssg70
g2669
sg63
(lp2676
g154
asbag56
(g77
g58
NtRp2677
(dp2678
g61
(dp2679
g88
g89
ssg70
g2669
sg63
(lp2680
S':'
asbag56
(g77
g58
NtRp2681
(dp2682
g61
(dp2683
sg70
g2669
sg63
(lp2684
g56
(g57
g58
NtRp2685
(dp2686
g61
(dp2687
g69
I5
ssg70
g2681
sg63
(lp2688
S'<cStringIO.StringO object at 0x3184378>'
p2689
asbasbasbag56
(g72
g58
NtRp2690
(dp2691
g61
(dp2692
sg70
g2665
sg63
(lp2693
g56
(g77
g58
NtRp2694
(dp2695
g61
(dp2696
g81
g82
ssg70
g2690
sg63
(lp2697
g220
asbag56
(g77
g58
NtRp2698
(dp2699
g61
(dp2700
g88
g89
ssg70
g2690
sg63
(lp2701
S':'
asbag56
(g77
g58
NtRp2702
(dp2703
g61
(dp2704
sg70
g2690
sg63
(lp2705
g56
(g57
g58
NtRp2706
(dp2707
g61
(dp2708
g69
I5
ssg70
g2702
sg63
(lp2709
g56
(g65
g58
NtRp2710
(dp2711
g61
(dp2712
g69
I4
ssg70
Nsg63
(lp2713
g56
(g72
g58
NtRp2714
(dp2715
g61
(dp2716
sg70
g2710
sg63
(lp2717
g56
(g77
g58
NtRp2718
(dp2719
g61
(dp2720
g81
g82
ssg70
g2714
sg63
(lp2721
S'session_id_scec'
p2722
asbag56
(g77
g58
NtRp2723
(dp2724
g61
(dp2725
g88
g89
ssg70
g2714
sg63
(lp2726
S':'
asbag56
(g77
g58
NtRp2727
(dp2728
g61
(dp2729
sg70
g2714
sg63
(lp2730
g56
(g57
g58
NtRp2731
(dp2732
g61
(dp2733
g69
I4
ssg70
g2727
sg63
(lp2734
g56
(g65
g58
NtRp2735
(dp2736
g61
(dp2737
g69
I3
ssg70
Nsg63
(lp2738
g56
(g72
g58
NtRp2739
(dp2740
g61
(dp2741
sg70
g2735
sg63
(lp2742
g56
(g77
g58
NtRp2743
(dp2744
g61
(dp2745
g81
g82
ssg70
g2739
sg63
(lp2746
g270
asbag56
(g77
g58
NtRp2747
(dp2748
g61
(dp2749
g88
g89
ssg70
g2739
sg63
(lp2750
S':'
asbag56
(g77
g58
NtRp2751
(dp2752
g61
(dp2753
sg70
g2739
sg63
(lp2754
g56
(g57
g58
NtRp2755
(dp2756
g61
(dp2757
g69
I3
ssg70
g2751
sg63
(lp2758
S''
asbasbasbag56
(g72
g58
NtRp2759
(dp2760
g61
(dp2761
sg70
g2735
sg63
(lp2762
g56
(g77
g58
NtRp2763
(dp2764
g61
(dp2765
g81
g82
ssg70
g2759
sg63
(lp2766
g291
asbag56
(g77
g58
NtRp2767
(dp2768
g61
(dp2769
g88
g89
ssg70
g2759
sg63
(lp2770
S':'
asbag56
(g77
g58
NtRp2771
(dp2772
g61
(dp2773
sg70
g2759
sg63
(lp2774
g56
(g57
g58
NtRp2775
(dp2776
g61
(dp2777
g69
I3
ssg70
g2771
sg63
(lp2778
S''
asbasbasbag56
(g72
g58
NtRp2779
(dp2780
g61
(dp2781
sg70
g2735
sg63
(lp2782
g56
(g77
g58
NtRp2783
(dp2784
g61
(dp2785
g81
g82
ssg70
g2779
sg63
(lp2786
g312
asbag56
(g77
g58
NtRp2787
(dp2788
g61
(dp2789
g88
g89
ssg70
g2779
sg63
(lp2790
S':'
asbag56
(g77
g58
NtRp2791
(dp2792
g61
(dp2793
sg70
g2779
sg63
(lp2794
g56
(g57
g58
NtRp2795
(dp2796
g61
(dp2797
g69
I3
ssg70
g2791
sg63
(lp2798
S''
asbasbasbag56
(g72
g58
NtRp2799
(dp2800
g61
(dp2801
sg70
g2735
sg63
(lp2802
g56
(g77
g58
NtRp2803
(dp2804
g61
(dp2805
g81
g82
ssg70
g2799
sg63
(lp2806
g333
asbag56
(g77
g58
NtRp2807
(dp2808
g61
(dp2809
g88
g89
ssg70
g2799
sg63
(lp2810
S':'
asbag56
(g77
g58
NtRp2811
(dp2812
g61
(dp2813
sg70
g2799
sg63
(lp2814
g56
(g57
g58
NtRp2815
(dp2816
g61
(dp2817
g69
I3
ssg70
g2811
sg63
(lp2818
S''
asbasbasbag56
(g72
g58
NtRp2819
(dp2820
g61
(dp2821
sg70
g2735
sg63
(lp2822
g56
(g77
g58
NtRp2823
(dp2824
g61
(dp2825
g81
g82
ssg70
g2819
sg63
(lp2826
g354
asbag56
(g77
g58
NtRp2827
(dp2828
g61
(dp2829
g88
g89
ssg70
g2819
sg63
(lp2830
S':'
asbag56
(g77
g58
NtRp2831
(dp2832
g61
(dp2833
sg70
g2819
sg63
(lp2834
g56
(g57
g58
NtRp2835
(dp2836
g61
(dp2837
g69
I3
ssg70
g2831
sg63
(lp2838
S''
asbasbasbag56
(g72
g58
NtRp2839
(dp2840
g61
(dp2841
sg70
g2735
sg63
(lp2842
g56
(g77
g58
NtRp2843
(dp2844
g61
(dp2845
g81
g82
ssg70
g2839
sg63
(lp2846
g375
asbag56
(g77
g58
NtRp2847
(dp2848
g61
(dp2849
g88
g89
ssg70
g2839
sg63
(lp2850
S':'
asbag56
(g77
g58
NtRp2851
(dp2852
g61
(dp2853
sg70
g2839
sg63
(lp2854
g56
(g57
g58
NtRp2855
(dp2856
g61
(dp2857
g69
I3
ssg70
g2851
sg63
(lp2858
S'/'
asbasbasbag56
(g72
g58
NtRp2859
(dp2860
g61
(dp2861
sg70
g2735
sg63
(lp2862
g56
(g77
g58
NtRp2863
(dp2864
g61
(dp2865
g81
g82
ssg70
g2859
sg63
(lp2866
g396
asbag56
(g77
g58
NtRp2867
(dp2868
g61
(dp2869
g88
g89
ssg70
g2859
sg63
(lp2870
S':'
asbag56
(g77
g58
NtRp2871
(dp2872
g61
(dp2873
sg70
g2859
sg63
(lp2874
g56
(g57
g58
NtRp2875
(dp2876
g61
(dp2877
g69
I3
ssg70
g2871
sg63
(lp2878
S''
asbasbasbag56
(g72
g58
NtRp2879
(dp2880
g61
(dp2881
sg70
g2735
sg63
(lp2882
g56
(g77
g58
NtRp2883
(dp2884
g61
(dp2885
g81
g82
ssg70
g2879
sg63
(lp2886
g417
asbag56
(g77
g58
NtRp2887
(dp2888
g61
(dp2889
g88
g89
ssg70
g2879
sg63
(lp2890
S':'
asbag56
(g77
g58
NtRp2891
(dp2892
g61
(dp2893
sg70
g2879
sg63
(lp2894
g56
(g57
g58
NtRp2895
(dp2896
g61
(dp2897
g69
I3
ssg70
g2891
sg63
(lp2898
S''
asbasbasbasbasbasbasbasbasbasbasbag56
(g72
g58
NtRp2899
(dp2900
g61
(dp2901
sg70
g2665
sg63
(lp2902
g56
(g77
g58
NtRp2903
(dp2904
g61
(dp2905
g81
g82
ssg70
g2899
sg63
(lp2906
S'files'
p2907
asbag56
(g77
g58
NtRp2908
(dp2909
g61
(dp2910
g88
g89
ssg70
g2899
sg63
(lp2911
S':'
asbag56
(g77
g58
NtRp2912
(dp2913
g61
(dp2914
sg70
g2899
sg63
(lp2915
g56
(g57
g58
NtRp2916
(dp2917
g61
(dp2918
g69
I5
ssg70
g2912
sg63
(lp2919
g56
(g65
g58
NtRp2920
(dp2921
g61
(dp2922
g69
I4
ssg70
Nsg63
(lp2923
sbasbasbasbag56
(g72
g58
NtRp2924
(dp2925
g61
(dp2926
sg70
g2665
sg63
(lp2927
g56
(g77
g58
NtRp2928
(dp2929
g61
(dp2930
g81
g82
ssg70
g2924
sg63
(lp2931
S'flash'
p2932
asbag56
(g77
g58
NtRp2933
(dp2934
g61
(dp2935
g88
g89
ssg70
g2924
sg63
(lp2936
S':'
asbag56
(g77
g58
NtRp2937
(dp2938
g61
(dp2939
sg70
g2924
sg63
(lp2940
g56
(g57
g58
NtRp2941
(dp2942
g61
(dp2943
g69
I5
ssg70
g2937
sg63
(lp2944
S''
asbasbasbag56
(g72
g58
NtRp2945
(dp2946
g61
(dp2947
sg70
g2665
sg63
(lp2948
g56
(g77
g58
NtRp2949
(dp2950
g61
(dp2951
g81
g82
ssg70
g2945
sg63
(lp2952
S'generic_patterns'
p2953
asbag56
(g77
g58
NtRp2954
(dp2955
g61
(dp2956
g88
g89
ssg70
g2945
sg63
(lp2957
S':'
asbag56
(g77
g58
NtRp2958
(dp2959
g61
(dp2960
sg70
g2945
sg63
(lp2961
g56
(g57
g58
NtRp2962
(dp2963
g61
(dp2964
g69
I5
ssg70
g2958
sg63
(lp2965
g56
(g65
g58
NtRp2966
(dp2967
g61
(dp2968
g69
I4
ssg70
Nsg63
(lp2969
g56
(g72
g58
NtRp2970
(dp2971
g61
(dp2972
sg70
g2966
sg63
(lp2973
g56
(g77
g58
NtRp2974
(dp2975
g61
(dp2976
sg70
g2970
sg63
(lp2977
g56
(g57
g58
NtRp2978
(dp2979
g61
(dp2980
g69
I4
ssg70
g2974
sg63
(lp2981
S'*'
asbasbasbasbasbasbasbag56
(g72
g58
NtRp2982
(dp2983
g61
(dp2984
sg70
g2665
sg63
(lp2985
g56
(g77
g58
NtRp2986
(dp2987
g61
(dp2988
g81
g82
ssg70
g2982
sg63
(lp2989
S'headers'
p2990
asbag56
(g77
g58
NtRp2991
(dp2992
g61
(dp2993
g88
g89
ssg70
g2982
sg63
(lp2994
S':'
asbag56
(g77
g58
NtRp2995
(dp2996
g61
(dp2997
sg70
g2982
sg63
(lp2998
g56
(g57
g58
NtRp2999
(dp3000
g61
(dp3001
g69
I5
ssg70
g2995
sg63
(lp3002
g56
(g65
g58
NtRp3003
(dp3004
g61
(dp3005
g69
I4
ssg70
Nsg63
(lp3006
g56
(g72
g58
NtRp3007
(dp3008
g61
(dp3009
sg70
g3003
sg63
(lp3010
g56
(g77
g58
NtRp3011
(dp3012
g61
(dp3013
g81
g82
ssg70
g3007
sg63
(lp3014
S'Cache-Control'
p3015
asbag56
(g77
g58
NtRp3016
(dp3017
g61
(dp3018
g88
g89
ssg70
g3007
sg63
(lp3019
S':'
asbag56
(g77
g58
NtRp3020
(dp3021
g61
(dp3022
sg70
g3007
sg63
(lp3023
g56
(g57
g58
NtRp3024
(dp3025
g61
(dp3026
g69
I4
ssg70
g3020
sg63
(lp3027
S'no-store, no-cache, must-revalidate, post-check=0, pre-check=0'
p3028
asbasbasbag56
(g72
g58
NtRp3029
(dp3030
g61
(dp3031
sg70
g3003
sg63
(lp3032
g56
(g77
g58
NtRp3033
(dp3034
g61
(dp3035
g81
g82
ssg70
g3029
sg63
(lp3036
S'Content-Type'
p3037
asbag56
(g77
g58
NtRp3038
(dp3039
g61
(dp3040
g88
g89
ssg70
g3029
sg63
(lp3041
S':'
asbag56
(g77
g58
NtRp3042
(dp3043
g61
(dp3044
sg70
g3029
sg63
(lp3045
g56
(g57
g58
NtRp3046
(dp3047
g61
(dp3048
g69
I4
ssg70
g3042
sg63
(lp3049
S'text/html; charset=utf-8'
p3050
asbasbasbag56
(g72
g58
NtRp3051
(dp3052
g61
(dp3053
sg70
g3003
sg63
(lp3054
g56
(g77
g58
NtRp3055
(dp3056
g61
(dp3057
g81
g82
ssg70
g3051
sg63
(lp3058
S'Expires'
p3059
asbag56
(g77
g58
NtRp3060
(dp3061
g61
(dp3062
g88
g89
ssg70
g3051
sg63
(lp3063
S':'
asbag56
(g77
g58
NtRp3064
(dp3065
g61
(dp3066
sg70
g3051
sg63
(lp3067
g56
(g57
g58
NtRp3068
(dp3069
g61
(dp3070
g69
I4
ssg70
g3064
sg63
(lp3071
S'Sun, 31 Jul 2011 20:59:37 GMT'
p3072
asbasbasbag56
(g72
g58
NtRp3073
(dp3074
g61
(dp3075
sg70
g3003
sg63
(lp3076
g56
(g77
g58
NtRp3077
(dp3078
g61
(dp3079
g81
g82
ssg70
g3073
sg63
(lp3080
S'Pragma'
p3081
asbag56
(g77
g58
NtRp3082
(dp3083
g61
(dp3084
g88
g89
ssg70
g3073
sg63
(lp3085
S':'
asbag56
(g77
g58
NtRp3086
(dp3087
g61
(dp3088
sg70
g3073
sg63
(lp3089
g56
(g57
g58
NtRp3090
(dp3091
g61
(dp3092
g69
I4
ssg70
g3086
sg63
(lp3093
S'no-cache'
p3094
asbasbasbag56
(g72
g58
NtRp3095
(dp3096
g61
(dp3097
sg70
g3003
sg63
(lp3098
g56
(g77
g58
NtRp3099
(dp3100
g61
(dp3101
g81
g82
ssg70
g3095
sg63
(lp3102
S'X-Powered-By'
p3103
asbag56
(g77
g58
NtRp3104
(dp3105
g61
(dp3106
g88
g89
ssg70
g3095
sg63
(lp3107
S':'
asbag56
(g77
g58
NtRp3108
(dp3109
g61
(dp3110
sg70
g3095
sg63
(lp3111
g56
(g57
g58
NtRp3112
(dp3113
g61
(dp3114
g69
I4
ssg70
g3108
sg63
(lp3115
S'web2py'
p3116
asbasbasbasbasbasbasbag56
(g72
g58
NtRp3117
(dp3118
g61
(dp3119
sg70
g2665
sg63
(lp3120
g56
(g77
g58
NtRp3121
(dp3122
g61
(dp3123
g81
g82
ssg70
g3117
sg63
(lp3124
S'menu'
p3125
asbag56
(g77
g58
NtRp3126
(dp3127
g61
(dp3128
g88
g89
ssg70
g3117
sg63
(lp3129
S':'
asbag56
(g77
g58
NtRp3130
(dp3131
g61
(dp3132
sg70
g3117
sg63
(lp3133
g56
(g57
g58
NtRp3134
(dp3135
g61
(dp3136
g69
I5
ssg70
g3130
sg63
(lp3137
g56
(g65
g58
NtRp3138
(dp3139
g61
(dp3140
g69
I4
ssg70
Nsg63
(lp3141
g56
(g72
g58
NtRp3142
(dp3143
g61
(dp3144
sg70
g3138
sg63
(lp3145
g56
(g77
g58
NtRp3146
(dp3147
g61
(dp3148
sg70
g3142
sg63
(lp3149
g56
(g57
g58
NtRp3150
(dp3151
g61
(dp3152
g69
I4
ssg70
g3146
sg63
(lp3153
g56
(g65
g58
NtRp3154
(dp3155
g61
(dp3156
g69
I3
ssg70
Nsg63
(lp3157
g56
(g72
g58
NtRp3158
(dp3159
g61
(dp3160
sg70
g3154
sg63
(lp3161
g56
(g77
g58
NtRp3162
(dp3163
g61
(dp3164
sg70
g3158
sg63
(lp3165
g56
(g57
g58
NtRp3166
(dp3167
g61
(dp3168
g69
I3
ssg70
g3162
sg63
(lp3169
S'Home'
p3170
asbasbasbag56
(g72
g58
NtRp3171
(dp3172
g61
(dp3173
sg70
g3154
sg63
(lp3174
g56
(g77
g58
NtRp3175
(dp3176
g61
(dp3177
sg70
g3171
sg63
(lp3178
g56
(g57
g58
NtRp3179
(dp3180
g61
(dp3181
g69
I3
ssg70
g3175
sg63
(lp3182
g99
asbasbasbag56
(g72
g58
NtRp3183
(dp3184
g61
(dp3185
sg70
g3154
sg63
(lp3186
g56
(g77
g58
NtRp3187
(dp3188
g61
(dp3189
sg70
g3183
sg63
(lp3190
g56
(g57
g58
NtRp3191
(dp3192
g61
(dp3193
g69
I3
ssg70
g3187
sg63
(lp3194
S'/scec/default/index'
p3195
asbasbasbag56
(g72
g58
NtRp3196
(dp3197
g61
(dp3198
sg70
g3154
sg63
(lp3199
g56
(g77
g58
NtRp3200
(dp3201
g61
(dp3202
sg70
g3196
sg63
(lp3203
g56
(g57
g58
NtRp3204
(dp3205
g61
(dp3206
g69
I3
ssg70
g3200
sg63
(lp3207
g56
(g65
g58
NtRp3208
(dp3209
g61
(dp3210
g69
I2
ssg70
Nsg63
(lp3211
sbasbasbasbasbasbasbasbasbasbasbasbag56
(g72
g58
NtRp3212
(dp3213
g61
(dp3214
sg70
g2665
sg63
(lp3215
g56
(g77
g58
NtRp3216
(dp3217
g61
(dp3218
g81
g82
ssg70
g3212
sg63
(lp3219
S'meta'
p3220
asbag56
(g77
g58
NtRp3221
(dp3222
g61
(dp3223
g88
g89
ssg70
g3212
sg63
(lp3224
S':'
asbag56
(g77
g58
NtRp3225
(dp3226
g61
(dp3227
sg70
g3212
sg63
(lp3228
g56
(g57
g58
NtRp3229
(dp3230
g61
(dp3231
g69
I5
ssg70
g3225
sg63
(lp3232
g56
(g65
g58
NtRp3233
(dp3234
g61
(dp3235
g69
I4
ssg70
Nsg63
(lp3236
g56
(g72
g58
NtRp3237
(dp3238
g61
(dp3239
sg70
g3233
sg63
(lp3240
g56
(g77
g58
NtRp3241
(dp3242
g61
(dp3243
g81
g82
ssg70
g3237
sg63
(lp3244
S'author'
p3245
asbag56
(g77
g58
NtRp3246
(dp3247
g61
(dp3248
g88
g89
ssg70
g3237
sg63
(lp3249
S':'
asbag56
(g77
g58
NtRp3250
(dp3251
g61
(dp3252
sg70
g3237
sg63
(lp3253
g56
(g57
g58
NtRp3254
(dp3255
g61
(dp3256
g69
I4
ssg70
g3250
sg63
(lp3257
S'Luis Diaz'
p3258
asbasbasbag56
(g72
g58
NtRp3259
(dp3260
g61
(dp3261
sg70
g3233
sg63
(lp3262
g56
(g77
g58
NtRp3263
(dp3264
g61
(dp3265
g81
g82
ssg70
g3259
sg63
(lp3266
S'copyright'
p3267
asbag56
(g77
g58
NtRp3268
(dp3269
g61
(dp3270
g88
g89
ssg70
g3259
sg63
(lp3271
S':'
asbag56
(g77
g58
NtRp3272
(dp3273
g61
(dp3274
sg70
g3259
sg63
(lp3275
g56
(g57
g58
NtRp3276
(dp3277
g61
(dp3278
g69
I4
ssg70
g3272
sg63
(lp3279
S''
asbasbasbag56
(g72
g58
NtRp3280
(dp3281
g61
(dp3282
sg70
g3233
sg63
(lp3283
g56
(g77
g58
NtRp3284
(dp3285
g61
(dp3286
g81
g82
ssg70
g3280
sg63
(lp3287
S'description'
p3288
asbag56
(g77
g58
NtRp3289
(dp3290
g61
(dp3291
g88
g89
ssg70
g3280
sg63
(lp3292
S':'
asbag56
(g77
g58
NtRp3293
(dp3294
g61
(dp3295
sg70
g3280
sg63
(lp3296
g56
(g57
g58
NtRp3297
(dp3298
g61
(dp3299
g69
I4
ssg70
g3293
sg63
(lp3300
S''
asbasbasbag56
(g72
g58
NtRp3301
(dp3302
g61
(dp3303
sg70
g3233
sg63
(lp3304
g56
(g77
g58
NtRp3305
(dp3306
g61
(dp3307
g81
g82
ssg70
g3301
sg63
(lp3308
S'generator'
p3309
asbag56
(g77
g58
NtRp3310
(dp3311
g61
(dp3312
g88
g89
ssg70
g3301
sg63
(lp3313
S':'
asbag56
(g77
g58
NtRp3314
(dp3315
g61
(dp3316
sg70
g3301
sg63
(lp3317
g56
(g57
g58
NtRp3318
(dp3319
g61
(dp3320
g69
I4
ssg70
g3314
sg63
(lp3321
S''
asbasbasbag56
(g72
g58
NtRp3322
(dp3323
g61
(dp3324
sg70
g3233
sg63
(lp3325
g56
(g77
g58
NtRp3326
(dp3327
g61
(dp3328
g81
g82
ssg70
g3322
sg63
(lp3329
S'keywords'
p3330
asbag56
(g77
g58
NtRp3331
(dp3332
g61
(dp3333
g88
g89
ssg70
g3322
sg63
(lp3334
S':'
asbag56
(g77
g58
NtRp3335
(dp3336
g61
(dp3337
sg70
g3322
sg63
(lp3338
g56
(g57
g58
NtRp3339
(dp3340
g61
(dp3341
g69
I4
ssg70
g3335
sg63
(lp3342
S''
asbasbasbasbasbasbasbag56
(g72
g58
NtRp3343
(dp3344
g61
(dp3345
sg70
g2665
sg63
(lp3346
g56
(g77
g58
NtRp3347
(dp3348
g61
(dp3349
g81
g82
ssg70
g3343
sg63
(lp3350
S'postprocessing'
p3351
asbag56
(g77
g58
NtRp3352
(dp3353
g61
(dp3354
g88
g89
ssg70
g3343
sg63
(lp3355
S':'
asbag56
(g77
g58
NtRp3356
(dp3357
g61
(dp3358
sg70
g3343
sg63
(lp3359
g56
(g57
g58
NtRp3360
(dp3361
g61
(dp3362
g69
I5
ssg70
g3356
sg63
(lp3363
g56
(g65
g58
NtRp3364
(dp3365
g61
(dp3366
g69
I4
ssg70
Nsg63
(lp3367
sbasbasbasbag56
(g72
g58
NtRp3368
(dp3369
g61
(dp3370
sg70
g2665
sg63
(lp3371
g56
(g77
g58
NtRp3372
(dp3373
g61
(dp3374
g81
g82
ssg70
g3368
sg63
(lp3375
S'session_file'
p3376
asbag56
(g77
g58
NtRp3377
(dp3378
g61
(dp3379
g88
g89
ssg70
g3368
sg63
(lp3380
S':'
asbag56
(g77
g58
NtRp3381
(dp3382
g61
(dp3383
sg70
g3368
sg63
(lp3384
g56
(g57
g58
NtRp3385
(dp3386
g61
(dp3387
g69
I5
ssg70
g3381
sg63
(lp3388
S"<open file '/home/diazluis2007/web2py/applications/scec/sessions/127.0.0.1-8199219c-f5a5-44cd-8601-dbcaf7e65670', mode 'rb+' at 0x318ac90>"
p3389
asbasbasbag56
(g72
g58
NtRp3390
(dp3391
g61
(dp3392
sg70
g2665
sg63
(lp3393
g56
(g77
g58
NtRp3394
(dp3395
g61
(dp3396
g81
g82
ssg70
g3390
sg63
(lp3397
S'session_filename'
p3398
asbag56
(g77
g58
NtRp3399
(dp3400
g61
(dp3401
g88
g89
ssg70
g3390
sg63
(lp3402
S':'
asbag56
(g77
g58
NtRp3403
(dp3404
g61
(dp3405
sg70
g3390
sg63
(lp3406
g56
(g57
g58
NtRp3407
(dp3408
g61
(dp3409
g69
I5
ssg70
g3403
sg63
(lp3410
S'/home/diazluis2007/web2py/applications/scec/sessions/127.0.0.1-8199219c-f5a5-44cd-8601-dbcaf7e65670'
p3411
asbasbasbag56
(g72
g58
NtRp3412
(dp3413
g61
(dp3414
sg70
g2665
sg63
(lp3415
g56
(g77
g58
NtRp3416
(dp3417
g61
(dp3418
g81
g82
ssg70
g3412
sg63
(lp3419
S'session_id'
p3420
asbag56
(g77
g58
NtRp3421
(dp3422
g61
(dp3423
g88
g89
ssg70
g3412
sg63
(lp3424
S':'
asbag56
(g77
g58
NtRp3425
(dp3426
g61
(dp3427
sg70
g3412
sg63
(lp3428
g56
(g57
g58
NtRp3429
(dp3430
g61
(dp3431
g69
I5
ssg70
g3425
sg63
(lp3432
S'127.0.0.1-8199219c-f5a5-44cd-8601-dbcaf7e65670'
p3433
asbasbasbag56
(g72
g58
NtRp3434
(dp3435
g61
(dp3436
sg70
g2665
sg63
(lp3437
g56
(g77
g58
NtRp3438
(dp3439
g61
(dp3440
g81
g82
ssg70
g3434
sg63
(lp3441
S'session_id_name'
p3442
asbag56
(g77
g58
NtRp3443
(dp3444
g61
(dp3445
g88
g89
ssg70
g3434
sg63
(lp3446
S':'
asbag56
(g77
g58
NtRp3447
(dp3448
g61
(dp3449
sg70
g3434
sg63
(lp3450
g56
(g57
g58
NtRp3451
(dp3452
g61
(dp3453
g69
I5
ssg70
g3447
sg63
(lp3454
g2722
asbasbasbag56
(g72
g58
NtRp3455
(dp3456
g61
(dp3457
sg70
g2665
sg63
(lp3458
g56
(g77
g58
NtRp3459
(dp3460
g61
(dp3461
g81
g82
ssg70
g3455
sg63
(lp3462
S'session_locked'
p3463
asbag56
(g77
g58
NtRp3464
(dp3465
g61
(dp3466
g88
g89
ssg70
g3455
sg63
(lp3467
S':'
asbag56
(g77
g58
NtRp3468
(dp3469
g61
(dp3470
sg70
g3455
sg63
(lp3471
g56
(g57
g58
NtRp3472
(dp3473
g61
(dp3474
g69
I5
ssg70
g3468
sg63
(lp3475
g1569
asbasbasbag56
(g72
g58
NtRp3476
(dp3477
g61
(dp3478
sg70
g2665
sg63
(lp3479
g56
(g77
g58
NtRp3480
(dp3481
g61
(dp3482
g81
g82
ssg70
g3476
sg63
(lp3483
S'session_new'
p3484
asbag56
(g77
g58
NtRp3485
(dp3486
g61
(dp3487
g88
g89
ssg70
g3476
sg63
(lp3488
S':'
asbag56
(g77
g58
NtRp3489
(dp3490
g61
(dp3491
sg70
g3476
sg63
(lp3492
g56
(g57
g58
NtRp3493
(dp3494
g61
(dp3495
g69
I5
ssg70
g3489
sg63
(lp3496
g99
asbasbasbag56
(g72
g58
NtRp3497
(dp3498
g61
(dp3499
sg70
g2665
sg63
(lp3500
g56
(g77
g58
NtRp3501
(dp3502
g61
(dp3503
g81
g82
ssg70
g3497
sg63
(lp3504
S'status'
p3505
asbag56
(g77
g58
NtRp3506
(dp3507
g61
(dp3508
g88
g89
ssg70
g3497
sg63
(lp3509
S':'
asbag56
(g77
g58
NtRp3510
(dp3511
g61
(dp3512
sg70
g3497
sg63
(lp3513
g56
(g57
g58
NtRp3514
(dp3515
g61
(dp3516
g69
I5
ssg70
g3510
sg63
(lp3517
S'200'
p3518
asbasbasbag56
(g72
g58
NtRp3519
(dp3520
g61
(dp3521
sg70
g2665
sg63
(lp3522
g56
(g77
g58
NtRp3523
(dp3524
g61
(dp3525
g81
g82
ssg70
g3519
sg63
(lp3526
S'subtitle'
p3527
asbag56
(g77
g58
NtRp3528
(dp3529
g61
(dp3530
g88
g89
ssg70
g3519
sg63
(lp3531
S':'
asbag56
(g77
g58
NtRp3532
(dp3533
g61
(dp3534
sg70
g3519
sg63
(lp3535
g56
(g57
g58
NtRp3536
(dp3537
g61
(dp3538
g69
I5
ssg70
g3532
sg63
(lp3539
S'Propotipo'
p3540
asbasbasbag56
(g72
g58
NtRp3541
(dp3542
g61
(dp3543
sg70
g2665
sg63
(lp3544
g56
(g77
g58
NtRp3545
(dp3546
g61
(dp3547
g81
g82
ssg70
g3541
sg63
(lp3548
S'title'
p3549
asbag56
(g77
g58
NtRp3550
(dp3551
g61
(dp3552
g88
g89
ssg70
g3541
sg63
(lp3553
S':'
asbag56
(g77
g58
NtRp3554
(dp3555
g61
(dp3556
sg70
g3541
sg63
(lp3557
g56
(g57
g58
NtRp3558
(dp3559
g61
(dp3560
g69
I5
ssg70
g3554
sg63
(lp3561
S'Sistema de Control de Estudios'
p3562
asbasbasbag56
(g72
g58
NtRp3563
(dp3564
g61
(dp3565
sg70
g2665
sg63
(lp3566
g56
(g77
g58
NtRp3567
(dp3568
g61
(dp3569
g81
g82
ssg70
g3563
sg63
(lp3570
g1893
asbag56
(g77
g58
NtRp3571
(dp3572
g61
(dp3573
g88
g89
ssg70
g3563
sg63
(lp3574
S':'
asbag56
(g77
g58
NtRp3575
(dp3576
g61
(dp3577
sg70
g3563
sg63
(lp3578
g56
(g57
g58
NtRp3579
(dp3580
g61
(dp3581
g69
I5
ssg70
g3575
sg63
(lp3582
g1906
asbasbasbag56
(g72
g58
NtRp3583
(dp3584
g61
(dp3585
sg70
g2665
sg63
(lp3586
g56
(g77
g58
NtRp3587
(dp3588
g61
(dp3589
g81
g82
ssg70
g3583
sg63
(lp3590
S'view'
p3591
asbag56
(g77
g58
NtRp3592
(dp3593
g61
(dp3594
g88
g89
ssg70
g3583
sg63
(lp3595
S':'
asbag56
(g77
g58
NtRp3596
(dp3597
g61
(dp3598
sg70
g3583
sg63
(lp3599
g56
(g57
g58
NtRp3600
(dp3601
g61
(dp3602
g69
I5
ssg70
g3596
sg63
(lp3603
S'default/setup.html'
p3604
asbasbasbasbasbsS'locals'
p3605
(dp3606
S'dato_admin'
p3607
S'<gluon.dal.Rows object>'
p3608
sS'id_user'
p3609
S'17'
p3610
sS'my_crypt'
p3611
S'<gluon.validators.CRYPT object>'
p3612
sssS'traceback'
p3613
S'Traceback (most recent call last):\n  File "/home/diazluis2007/web2py/gluon/restricted.py", line 192, in restricted\n    exec ccode in environment\n  File "/home/diazluis2007/web2py/applications/scec/controllers/default.py", line 157, in <module>\n  File "/home/diazluis2007/web2py/gluon/globals.py", line 137, in <lambda>\n    self._caller = lambda f: f()\n  File "/home/diazluis2007/web2py/applications/scec/controllers/default.py", line 123, in setup\n    db(db.auth_membership.id<>user_id).delete()\nNameError: global name \'user_id\' is not defined\n'
p3614
s.