(dp1
S'output'
p2
S''
sS'layer'
p3
S'/home/diazluis2007/web2py/applications/scec/views/default/user.html'
p4
sS'code'
p5
S'response.write(\'<!DOCTYPE html>\\n<html lang="\', escape=False)\nresponse.write(T.accepted_language or \'es\')\nresponse.write(\'" class="no-js"><!-- no-js need it for modernzr -->\\n  <head>\\n    \\n    <meta charset="utf-8" />\\t  \\t\\n    <!-- www.phpied.com/conditional-comments-block-downloads/ -->\\n    <!--[if IE]><![endif]-->    \\n    <!-- Always force latest IE rendering engine \\n\\t (even in intranet) & Chrome Frame \\n\\t Remove this if you use the .htaccess -->\\n    <meta http-equiv="X-UA-Compatible" content="IE=edge,chrome=1">\\n    \\n    <title>\', escape=False)\nresponse.write(response.title or request.application)\nresponse.write(\'</title>\\n    \\n    <!-- http://dev.w3.org/html5/markup/meta.name.html -->\\n    <meta name="application-name" content="\', escape=False)\nresponse.write(request.application)\nresponse.write(\'" />\\t\\n    \\n    <!-- Speaking of Google, don\\\'t forget to set your site up: \\n\\t http://google.com/webmasters -->\\n    <meta name="google-site-verification" content="" />\\n    \\n    <!--  Mobile Viewport Fix\\n\\t  j.mp/mobileviewport & davidbcalhoun.com/2010/viewport-metatag \\n\\t  device-width: Occupy full width of the screen in its current orientation\\n\\t  initial-scale = 1.0 retains dimensions instead of zooming out if page height > device height\\n\\t  maximum-scale = 1.0 retains dimensions instead of zooming in if page width < device width\\n      -->\\n    <meta name="viewport" content="width=device-width, initial-scale=1.0, maximum-scale=1.0">\\n    \\n    <!-- Place favicon.ico and apple-touch-icon.png in the root of your domain and delete these references -->\\n    <link rel="shortcut icon" href="\', escape=False)\nresponse.write(URL(\'static\',\'favicon.ico\'))\nresponse.write(\'" type="image/x-icon">\\n    <link rel="apple-touch-icon" href="\', escape=False)\nresponse.write(URL(\'static\',\'favicon.png\'))\nresponse.write(\'">\\n\\n    <!-- For the less-enabled mobile browsers like Opera Mini -->\\n    <link rel="stylesheet" media="handheld" href="\', escape=False)\nresponse.write(URL(\'static\',\'css/handheld.css\'))\nresponse.write(\'">\\n    \\n    <!-- All JavaScript at the bottom, except for Modernizr which enables HTML5 elements & feature detects -->\\n    <script src="\', escape=False)\nresponse.write(URL(\'static\',\'js/modernizr-1.7.min.js\'))\nresponse.write(\'"></script>\\n    \\n    \', escape=False)\n#------  require CSS and JS files for this page (read info in base.css) ------\nresponse.write(\'\\n    \', escape=False)\nresponse.files.append(URL(\'static\',\'css/base.css\'))\nresponse.write(\'\\n    \', escape=False)\nresponse.files.append(URL(\'static\',\'css/superfish.css\'))\nresponse.write(\'\\n    \', escape=False)\nresponse.files.append(URL(\'static\',\'js/superfish.js\'))\nresponse.write(\'\\n\\n    \', escape=False)\nresponse.files.append(URL(\'static\',\'js/jquery.tooltip.min.js\'))\nresponse.write(\'\\n    \', escape=False)\nresponse.files.append(URL(\'static\',\'css/jquery.tooltip.css\'))\nresponse.write(\'\\n\\n    \', escape=False)\n#------ include web2py specific js code (jquery, calendar, form stuff) ------\nresponse.write(\'\\n    \', escape=False)\nresponse.files.insert(0,URL(\'static\',\'js/jquery.js\'))\nresponse.files.insert(1,URL(\'static\',\'css/calendar.css\'))\nresponse.files.insert(2,URL(\'static\',\'js/calendar.js\'))\nfor _item in response.meta or []:\n    response.write(\'\\n     <meta name="\', escape=False)\n    response.write(_item)\n    response.write(\'" content="\', escape=False)\n    response.write(response.meta[_item])\n    response.write(\'" />\', escape=False)\n    pass\nfor _k,_file in enumerate(response.files or []):\n    if _file in response.files[:_k]:\n        continue\n    _file0=_file.lower().split(\'?\')[0]\n    if _file0.endswith(\'.css\'):\n        response.write(\'\\n     <link href="\', escape=False)\n        response.write(_file)\n        response.write(\'" rel="stylesheet" type="text/css" />\', escape=False)\n    elif _file0.endswith(\'.js\'):\n        response.write(\'\\n     <script src="\', escape=False)\n        response.write(_file)\n        response.write(\'" type="text/javascript"></script>\', escape=False)\n        pass\n    pass\nresponse.write(\'\\n    <script type="text/javascript"><!--\\n    // These variables are used by the web2py_ajax_init function in web2py_ajax.js (which is loaded below).\\n    var w2p_ajax_confirm_message = "\', escape=False)\nresponse.write(T(\'Are you sure you want to delete this object?\'))\nresponse.write(\'";\\n    var w2p_ajax_date_format = "\', escape=False)\nresponse.write(T(\'%Y-%m-%d\'))\nresponse.write(\'";\\n    var w2p_ajax_datetime_format = "\', escape=False)\nresponse.write(T(\'%Y-%m-%d %H:%M:%S\'))\nresponse.write(\'";\\n    //--></script>\\n    <script src="\', escape=False)\nresponse.write(URL(\'static\',\'js/web2py_ajax.js\'))\nresponse.write(\'" type="text/javascript"></script>\\n\', escape=False)\nresponse.write(\'\\n\\n\\n  </head>\\n  \\n  <!-- paulirish.com/2008/conditional-stylesheets-vs-css-hacks-answer-neither/ -->\\t\\n  <!--[if lt IE 7 ]> <body class="ie6"> <![endif]-->\\n  <!--[if IE 7 ]>    <body class="ie7"> <![endif]-->\\n  <!--[if IE 8 ]>    <body class="ie8"> <![endif]-->\\n  <!--[if IE 9 ]>    <body class="ie9"> <![endif]-->\\n  <!--[if (gt IE 9)|!(IE)]><!--> <body> <!--<![endif]-->\\n    \\n    <div class="flash">\', escape=False)\nresponse.write(response.flash or \'\')\nresponse.write(\'</div> <!-- notification div -->\\n    \\n    <div id="container">\\t      \\t\\t      \\t\\n      \\n      <div id="wrapper">\\t\\t\\n\\t\\n\\t<div id="header"> <!-- header and login nav -->\\n\\t  \', escape=False)\nresponse.write(\' <!-- this is default header -->\\n\\t  \', escape=False)\ntry:\n    response.write(auth.navbar(action=URL(\'default\',\'user\')))\nexcept:pass\nresponse.write(\'\\t\\t          \\n\\t  <h3>\', escape=False)\nresponse.write(response.title)\nresponse.write(\' <span id="appname">App</span></h3>\\n\\t  <div style="clear: both;"></div><!-- Clear the divs -->\\n\\t  \', escape=False)\nresponse.write(\'\\t\\t\\t\\t  \\t\\t\\t\\t\\t  \\n\\t</div><!-- header  -->\\n\\t\\n\\t<div id="statusbar"><!-- statusbar is menu zone -->\\n\\t  \', escape=False)\nresponse.write(\' <!-- this is default statusbar -->\\n\\t  \', escape=False)\n#------ superfish menu ------\nresponse.write(\'\\n\\t  \', escape=False)\nresponse.write(MENU(response.menu,_class=\'sf-menu\'))\nresponse.write(\'\\n\\t  <script type="text/javascript">\\n\\t    jQuery(document).ready(function(){\\n\\t    jQuery(\\\'ul.sf-menu\\\').superfish();});\\n\\t  </script>\\n\\t  <div style="clear: both;"></div><!-- Clear the divs -->\\t\\n\\t  \', escape=False)\nresponse.write(\'\\t\\t\\t\\t\\n\\t</div><!-- statusbar -->\\n\\t\\n\\t<div id="page"> <!-- Here my central body -->\\t  \\n\\n\\n\\t  <!-- content -->\\n\\t  <div id="content" >\\n\\t    \', escape=False)\nresponse.write(\'\\n\\n\\n\\n<table>\\n    <tr>\\n        <td>\\n            \', escape=False)\nresponse.write(form)\nresponse.write(\'\\n            <br/>\\n        </td>\\n    \', escape=False)\nif form_perfil:\n    response.write(\'\\n        <td>\\n                \', escape=False)\n    response.write(form_perfil)\n    response.write(\'\\n        </td>\\n     \', escape=False)\n    pass\nresponse.write(\'\\n    </tr>\\n\\n</table>\\n\\n\\n\\n\\n\', escape=False)\nif request.args(0)==\'login\':\n    response.write(\'\\n\', escape=False)\n    if not \'register\' in auth.settings.actions_disabled:\n        response.write(\'\\n<br/><a href="\', escape=False)\n        response.write(URL(r=request,args=\'register\'))\n        response.write(\'">register</a>\\n\', escape=False)\n        pass\n    response.write(\'\\n\', escape=False)\n    if not \'request_reset_password\' in auth.settings.actions_disabled:\n        response.write(\'\\n<br/><a href="\', escape=False)\n        response.write(URL(r=request,args=\'request_reset_password\'))\n        response.write(\'">lost password</a>\\n\', escape=False)\n        pass\n    response.write(\'\\n\', escape=False)\n    pass\nresponse.write(\'\\n\\n\\n<script language="javascript">\\n<!--\\n jQuery("#web2py_user_form input:visible:enabled:first").focus();\\n//-->\\n</script> \\n\', escape=False)\nresponse.write(\'\\t\\n\\t  </div>\\n\\t  <!-- content -->\\n\\n\\n\\t  <div style="clear: both;"></div><!-- Clear the divs -->\\n\\t  \\n\\t</div><!-- page -->\\t\\t\\t\\t\\t\\t\\t\\n\\t\\n\\t<div id="footer">\\n\\t  \', escape=False)\nresponse.write(\' <!-- this is default footer -->\\n\\t  \', escape=False)\nresponse.write(T(\'Copyright\'))\nresponse.write(\' &#169; 2010\\t\\t\\t\\t\\n\\t  <div style="clear: both;"></div><!-- Clear the divs -->\\n\\t  \', escape=False)\nresponse.write(\'\\n\\n\\t</div><!-- footer -->\\t\\t\\t\\n      </div><!-- wrapper -->\\n    </div><!-- container -->\\t\\t\\n    \\n    <!--[if lt IE 7 ]>\\n\\t<script src="\', escape=False)\nresponse.write(URL(\'static\',\'js/dd_belatedpng.js\'))\nresponse.write(\'"></script>\\n\\t<script> DD_belatedPNG.fix(\\\'img, .png_bg\\\'); //fix any <img> or .png_bg background-images </script>\\n\\t<![endif]-->\\n    \\n    <!-- asynchronous google analytics: mathiasbynens.be/notes/async-analytics-snippet \\n\\t change the UA-XXXXX-X to be your site\\\'s ID -->\\n    <!--   \\n\\t   <script>\\n\\t     var _gaq = [[\\\'_setAccount\\\', \\\'UA-XXXXX-X\\\'], [\\\'_trackPageview\\\']];\\n\\t     (function(d, t) {\\n\\t     var g = d.createElement(t),\\n\\t     s = d.getElementsByTagName(t)[0];\\n\\t     g.async = true;\\n\\t     g.src = \\\'//www.google-analytics.com/ga.js\\\';\\n\\t     s.parentNode.insertBefore(g, s);\\n\\t     })(document, \\\'script\\\');\\n\\t   </script>\\n\\t   -->\\n\\n\\n        <script type="text/javascript">\\n\\t       $(function() {\\n               $(".w2p_fw").each(function (){                    //iterates over all form widgets\\n                       $(this).attr(\\\'title\\\',$(this).next().html());      // set title for the widget taken from the comment column\\n                       $(this).next().html(\\\'\\\');                             // clear the comment\\n                       $(this).tooltip();                                    // create the tooltip with title attribute set\\n               });\\n\\t       });\\n\\t\\t</script>\\n    \\n  </body>\\n</html>\\n\', escape=False)'
p6
sS'snapshot'
p7
(dp8
S'exception'
p9
(dp10
S'__hash__'
p11
S"<method-wrapper '__hash__' of exceptions.NameError object>"
p12
sS'__setattr__'
p13
S"<method-wrapper '__setattr__' of exceptions.NameError object>"
p14
sS'__reduce_ex__'
p15
S'<built-in method __reduce_ex__ of exceptions.NameError object>'
p16
sS'__getslice__'
p17
S"<method-wrapper '__getslice__' of exceptions.NameError object>"
p18
sS'__getitem__'
p19
S"<method-wrapper '__getitem__' of exceptions.NameError object>"
p20
sS'__setstate__'
p21
S'<built-in method __setstate__ of exceptions.NameError object>'
p22
sS'args'
p23
S'("name \'form_perfil\' is not defined",)'
p24
sS'__reduce__'
p25
S'<built-in method __reduce__ of exceptions.NameError object>'
p26
sS'__str__'
p27
S"<method-wrapper '__str__' of exceptions.NameError object>"
p28
sS'__format__'
p29
S'<built-in method __format__ of exceptions.NameError object>'
p30
sS'__getattribute__'
p31
S"<method-wrapper '__getattribute__' of exceptions.NameError object>"
p32
sS'__class__'
p33
S"<type 'exceptions.NameError'>"
p34
sS'__unicode__'
p35
S'<built-in method __unicode__ of exceptions.NameError object>'
p36
sS'__delattr__'
p37
S"<method-wrapper '__delattr__' of exceptions.NameError object>"
p38
sS'__subclasshook__'
p39
S'<built-in method __subclasshook__ of type object>'
p40
sS'__repr__'
p41
S"<method-wrapper '__repr__' of exceptions.NameError object>"
p42
sS'__dict__'
p43
S'{}'
p44
sS'__sizeof__'
p45
S'<built-in method __sizeof__ of exceptions.NameError object>'
p46
sS'__doc__'
p47
S"'Name not found globally.'"
p48
sS'__init__'
p49
S"<method-wrapper '__init__' of exceptions.NameError object>"
p50
sS'__new__'
p51
S'<built-in method __new__ of type object>'
p52
ssS'evalue'
p53
S"name 'form_perfil' is not defined"
p54
sS'request'
p55
ccopy_reg
_reconstructor
p56
(cgluon.html
BEAUTIFY
p57
c__builtin__
object
p58
NtRp59
(dp60
S'attributes'
p61
(dp62
sS'components'
p63
(lp64
g56
(cgluon.html
TABLE
p65
g58
NtRp66
(dp67
g61
(dp68
S'level'
p69
I5
ssS'parent'
p70
Nsg63
(lp71
g56
(cgluon.html
TR
p72
g58
NtRp73
(dp74
g61
(dp75
sg70
g66
sg63
(lp76
g56
(cgluon.html
TD
p77
g58
NtRp78
(dp79
g61
(dp80
S'_style'
p81
S'font-weight:bold;'
p82
ssg70
g73
sg63
(lp83
S'ajax'
p84
asbag56
(g77
g58
NtRp85
(dp86
g61
(dp87
S'_valign'
p88
S'top'
p89
ssg70
g73
sg63
(lp90
S':'
asbag56
(g77
g58
NtRp91
(dp92
g61
(dp93
sg70
g73
sg63
(lp94
g56
(g57
g58
NtRp95
(dp96
g61
(dp97
g69
I5
ssg70
g91
sg63
(lp98
S'False'
p99
asbasbasbag56
(g72
g58
NtRp100
(dp101
g61
(dp102
sg70
g66
sg63
(lp103
g56
(g77
g58
NtRp104
(dp105
g61
(dp106
g81
g82
ssg70
g100
sg63
(lp107
S'application'
p108
asbag56
(g77
g58
NtRp109
(dp110
g61
(dp111
g88
g89
ssg70
g100
sg63
(lp112
S':'
asbag56
(g77
g58
NtRp113
(dp114
g61
(dp115
sg70
g100
sg63
(lp116
g56
(g57
g58
NtRp117
(dp118
g61
(dp119
g69
I5
ssg70
g113
sg63
(lp120
S'scec'
p121
asbasbasbag56
(g72
g58
NtRp122
(dp123
g61
(dp124
sg70
g66
sg63
(lp125
g56
(g77
g58
NtRp126
(dp127
g61
(dp128
g81
g82
ssg70
g122
sg63
(lp129
g23
asbag56
(g77
g58
NtRp130
(dp131
g61
(dp132
g88
g89
ssg70
g122
sg63
(lp133
S':'
asbag56
(g77
g58
NtRp134
(dp135
g61
(dp136
sg70
g122
sg63
(lp137
g56
(g57
g58
NtRp138
(dp139
g61
(dp140
g69
I5
ssg70
g134
sg63
(lp141
g56
(g65
g58
NtRp142
(dp143
g61
(dp144
g69
I4
ssg70
Nsg63
(lp145
g56
(g72
g58
NtRp146
(dp147
g61
(dp148
sg70
g142
sg63
(lp149
g56
(g77
g58
NtRp150
(dp151
g61
(dp152
sg70
g146
sg63
(lp153
g56
(g57
g58
NtRp154
(dp155
g61
(dp156
g69
I4
ssg70
g150
sg63
(lp157
S'login'
p158
asbasbasbasbasbasbasbag56
(g72
g58
NtRp159
(dp160
g61
(dp161
sg70
g66
sg63
(lp162
g56
(g77
g58
NtRp163
(dp164
g61
(dp165
g81
g82
ssg70
g159
sg63
(lp166
S'body'
p167
asbag56
(g77
g58
NtRp168
(dp169
g61
(dp170
g88
g89
ssg70
g159
sg63
(lp171
S':'
asbag56
(g77
g58
NtRp172
(dp173
g61
(dp174
sg70
g159
sg63
(lp175
g56
(g57
g58
NtRp176
(dp177
g61
(dp178
g69
I5
ssg70
g172
sg63
(lp179
S'<cStringIO.StringO object at 0x3baace0>'
p180
asbasbasbag56
(g72
g58
NtRp181
(dp182
g61
(dp183
sg70
g66
sg63
(lp184
g56
(g77
g58
NtRp185
(dp186
g61
(dp187
g81
g82
ssg70
g181
sg63
(lp188
S'client'
p189
asbag56
(g77
g58
NtRp190
(dp191
g61
(dp192
g88
g89
ssg70
g181
sg63
(lp193
S':'
asbag56
(g77
g58
NtRp194
(dp195
g61
(dp196
sg70
g181
sg63
(lp197
g56
(g57
g58
NtRp198
(dp199
g61
(dp200
g69
I5
ssg70
g194
sg63
(lp201
S'127.0.0.1'
p202
asbasbasbag56
(g72
g58
NtRp203
(dp204
g61
(dp205
sg70
g66
sg63
(lp206
g56
(g77
g58
NtRp207
(dp208
g61
(dp209
g81
g82
ssg70
g203
sg63
(lp210
S'controller'
p211
asbag56
(g77
g58
NtRp212
(dp213
g61
(dp214
g88
g89
ssg70
g203
sg63
(lp215
S':'
asbag56
(g77
g58
NtRp216
(dp217
g61
(dp218
sg70
g203
sg63
(lp219
g56
(g57
g58
NtRp220
(dp221
g61
(dp222
g69
I5
ssg70
g216
sg63
(lp223
S'default'
p224
asbasbasbag56
(g72
g58
NtRp225
(dp226
g61
(dp227
sg70
g66
sg63
(lp228
g56
(g77
g58
NtRp229
(dp230
g61
(dp231
g81
g82
ssg70
g225
sg63
(lp232
S'cookies'
p233
asbag56
(g77
g58
NtRp234
(dp235
g61
(dp236
g88
g89
ssg70
g225
sg63
(lp237
S':'
asbag56
(g77
g58
NtRp238
(dp239
g61
(dp240
sg70
g225
sg63
(lp241
g56
(g57
g58
NtRp242
(dp243
g61
(dp244
g69
I5
ssg70
g238
sg63
(lp245
g56
(g65
g58
NtRp246
(dp247
g61
(dp248
g69
I4
ssg70
Nsg63
(lp249
g56
(g72
g58
NtRp250
(dp251
g61
(dp252
sg70
g246
sg63
(lp253
g56
(g77
g58
NtRp254
(dp255
g61
(dp256
g81
g82
ssg70
g250
sg63
(lp257
S'session_id_scec'
p258
asbag56
(g77
g58
NtRp259
(dp260
g61
(dp261
g88
g89
ssg70
g250
sg63
(lp262
S':'
asbag56
(g77
g58
NtRp263
(dp264
g61
(dp265
sg70
g250
sg63
(lp266
g56
(g57
g58
NtRp267
(dp268
g61
(dp269
g69
I4
ssg70
g263
sg63
(lp270
g56
(g65
g58
NtRp271
(dp272
g61
(dp273
g69
I3
ssg70
Nsg63
(lp274
g56
(g72
g58
NtRp275
(dp276
g61
(dp277
sg70
g271
sg63
(lp278
g56
(g77
g58
NtRp279
(dp280
g61
(dp281
g81
g82
ssg70
g275
sg63
(lp282
S'comment'
p283
asbag56
(g77
g58
NtRp284
(dp285
g61
(dp286
g88
g89
ssg70
g275
sg63
(lp287
S':'
asbag56
(g77
g58
NtRp288
(dp289
g61
(dp290
sg70
g275
sg63
(lp291
g56
(g57
g58
NtRp292
(dp293
g61
(dp294
g69
I3
ssg70
g288
sg63
(lp295
S''
asbasbasbag56
(g72
g58
NtRp296
(dp297
g61
(dp298
sg70
g271
sg63
(lp299
g56
(g77
g58
NtRp300
(dp301
g61
(dp302
g81
g82
ssg70
g296
sg63
(lp303
S'domain'
p304
asbag56
(g77
g58
NtRp305
(dp306
g61
(dp307
g88
g89
ssg70
g296
sg63
(lp308
S':'
asbag56
(g77
g58
NtRp309
(dp310
g61
(dp311
sg70
g296
sg63
(lp312
g56
(g57
g58
NtRp313
(dp314
g61
(dp315
g69
I3
ssg70
g309
sg63
(lp316
S''
asbasbasbag56
(g72
g58
NtRp317
(dp318
g61
(dp319
sg70
g271
sg63
(lp320
g56
(g77
g58
NtRp321
(dp322
g61
(dp323
g81
g82
ssg70
g317
sg63
(lp324
S'expires'
p325
asbag56
(g77
g58
NtRp326
(dp327
g61
(dp328
g88
g89
ssg70
g317
sg63
(lp329
S':'
asbag56
(g77
g58
NtRp330
(dp331
g61
(dp332
sg70
g317
sg63
(lp333
g56
(g57
g58
NtRp334
(dp335
g61
(dp336
g69
I3
ssg70
g330
sg63
(lp337
S''
asbasbasbag56
(g72
g58
NtRp338
(dp339
g61
(dp340
sg70
g271
sg63
(lp341
g56
(g77
g58
NtRp342
(dp343
g61
(dp344
g81
g82
ssg70
g338
sg63
(lp345
S'httponly'
p346
asbag56
(g77
g58
NtRp347
(dp348
g61
(dp349
g88
g89
ssg70
g338
sg63
(lp350
S':'
asbag56
(g77
g58
NtRp351
(dp352
g61
(dp353
sg70
g338
sg63
(lp354
g56
(g57
g58
NtRp355
(dp356
g61
(dp357
g69
I3
ssg70
g351
sg63
(lp358
S''
asbasbasbag56
(g72
g58
NtRp359
(dp360
g61
(dp361
sg70
g271
sg63
(lp362
g56
(g77
g58
NtRp363
(dp364
g61
(dp365
g81
g82
ssg70
g359
sg63
(lp366
S'max-age'
p367
asbag56
(g77
g58
NtRp368
(dp369
g61
(dp370
g88
g89
ssg70
g359
sg63
(lp371
S':'
asbag56
(g77
g58
NtRp372
(dp373
g61
(dp374
sg70
g359
sg63
(lp375
g56
(g57
g58
NtRp376
(dp377
g61
(dp378
g69
I3
ssg70
g372
sg63
(lp379
S''
asbasbasbag56
(g72
g58
NtRp380
(dp381
g61
(dp382
sg70
g271
sg63
(lp383
g56
(g77
g58
NtRp384
(dp385
g61
(dp386
g81
g82
ssg70
g380
sg63
(lp387
S'path'
p388
asbag56
(g77
g58
NtRp389
(dp390
g61
(dp391
g88
g89
ssg70
g380
sg63
(lp392
S':'
asbag56
(g77
g58
NtRp393
(dp394
g61
(dp395
sg70
g380
sg63
(lp396
g56
(g57
g58
NtRp397
(dp398
g61
(dp399
g69
I3
ssg70
g393
sg63
(lp400
S''
asbasbasbag56
(g72
g58
NtRp401
(dp402
g61
(dp403
sg70
g271
sg63
(lp404
g56
(g77
g58
NtRp405
(dp406
g61
(dp407
g81
g82
ssg70
g401
sg63
(lp408
S'secure'
p409
asbag56
(g77
g58
NtRp410
(dp411
g61
(dp412
g88
g89
ssg70
g401
sg63
(lp413
S':'
asbag56
(g77
g58
NtRp414
(dp415
g61
(dp416
sg70
g401
sg63
(lp417
g56
(g57
g58
NtRp418
(dp419
g61
(dp420
g69
I3
ssg70
g414
sg63
(lp421
S''
asbasbasbag56
(g72
g58
NtRp422
(dp423
g61
(dp424
sg70
g271
sg63
(lp425
g56
(g77
g58
NtRp426
(dp427
g61
(dp428
g81
g82
ssg70
g422
sg63
(lp429
S'version'
p430
asbag56
(g77
g58
NtRp431
(dp432
g61
(dp433
g88
g89
ssg70
g422
sg63
(lp434
S':'
asbag56
(g77
g58
NtRp435
(dp436
g61
(dp437
sg70
g422
sg63
(lp438
g56
(g57
g58
NtRp439
(dp440
g61
(dp441
g69
I3
ssg70
g435
sg63
(lp442
S''
asbasbasbasbasbasbasbasbasbasbasbag56
(g72
g58
NtRp443
(dp444
g61
(dp445
sg70
g66
sg63
(lp446
g56
(g77
g58
NtRp447
(dp448
g61
(dp449
g81
g82
ssg70
g443
sg63
(lp450
S'env'
p451
asbag56
(g77
g58
NtRp452
(dp453
g61
(dp454
g88
g89
ssg70
g443
sg63
(lp455
S':'
asbag56
(g77
g58
NtRp456
(dp457
g61
(dp458
sg70
g443
sg63
(lp459
g56
(g57
g58
NtRp460
(dp461
g61
(dp462
g69
I5
ssg70
g456
sg63
(lp463
g56
(g65
g58
NtRp464
(dp465
g61
(dp466
g69
I4
ssg70
Nsg63
(lp467
g56
(g72
g58
NtRp468
(dp469
g61
(dp470
sg70
g464
sg63
(lp471
g56
(g77
g58
NtRp472
(dp473
g61
(dp474
g81
g82
ssg70
g468
sg63
(lp475
S'app_folders'
p476
asbag56
(g77
g58
NtRp477
(dp478
g61
(dp479
g88
g89
ssg70
g468
sg63
(lp480
S':'
asbag56
(g77
g58
NtRp481
(dp482
g61
(dp483
sg70
g468
sg63
(lp484
g56
(g57
g58
NtRp485
(dp486
g61
(dp487
g69
I4
ssg70
g481
sg63
(lp488
S"set(['/home/diazluis2007/web2py/applications/welcome/', '/home/diazluis2007/web2py/applications/scec/', '/home/diazluis2007/web2py/applications/admin/'])"
p489
asbasbasbag56
(g72
g58
NtRp490
(dp491
g61
(dp492
sg70
g464
sg63
(lp493
g56
(g77
g58
NtRp494
(dp495
g61
(dp496
g81
g82
ssg70
g490
sg63
(lp497
S'applications_parent'
p498
asbag56
(g77
g58
NtRp499
(dp500
g61
(dp501
g88
g89
ssg70
g490
sg63
(lp502
S':'
asbag56
(g77
g58
NtRp503
(dp504
g61
(dp505
sg70
g490
sg63
(lp506
g56
(g57
g58
NtRp507
(dp508
g61
(dp509
g69
I4
ssg70
g503
sg63
(lp510
S'/home/diazluis2007/web2py'
p511
asbasbasbag56
(g72
g58
NtRp512
(dp513
g61
(dp514
sg70
g464
sg63
(lp515
g56
(g77
g58
NtRp516
(dp517
g61
(dp518
g81
g82
ssg70
g512
sg63
(lp519
S'cmd_args'
p520
asbag56
(g77
g58
NtRp521
(dp522
g61
(dp523
g88
g89
ssg70
g512
sg63
(lp524
S':'
asbag56
(g77
g58
NtRp525
(dp526
g61
(dp527
sg70
g512
sg63
(lp528
g56
(g57
g58
NtRp529
(dp530
g61
(dp531
g69
I4
ssg70
g525
sg63
(lp532
g56
(g65
g58
NtRp533
(dp534
g61
(dp535
g69
I3
ssg70
Nsg63
(lp536
sbasbasbasbag56
(g72
g58
NtRp537
(dp538
g61
(dp539
sg70
g464
sg63
(lp540
g56
(g77
g58
NtRp541
(dp542
g61
(dp543
g81
g82
ssg70
g537
sg63
(lp544
S'cmd_options'
p545
asbag56
(g77
g58
NtRp546
(dp547
g61
(dp548
g88
g89
ssg70
g537
sg63
(lp549
S':'
asbag56
(g77
g58
NtRp550
(dp551
g61
(dp552
sg70
g537
sg63
(lp553
g56
(g57
g58
NtRp554
(dp555
g61
(dp556
g69
I4
ssg70
g550
sg63
(lp557
S"<Values at 0x28a6998: {'verbose': False, 'ip': '127.0.0.1', 'shutdown_timeout': 5, 'taskbar': False, 'port': 8000, 'maxthreads': None, 'softcron': False, 'server_name': 'morfeo', 'bpython': False, 'nogui': False, 'nocron': False, 'extcron': False, 'debuglevel': 30, 'test': None, 'folder': '/home/diazluis2007/web2py', 'config': '', 'import_models': False, 'winservice': '', 'shell': None, 'run': '', 'log_filename': 'httpserver.log', 'args': [''], 'profiler_filename': None, 'ssl_private_key': '', 'password': '<ask>', 'request_queue_size': 5, 'ssl_certificate': '', 'cronjob': False, 'plain': False, 'quiet': False, 'interfaces': None, 'minthreads': None, 'timeout': 10, 'numthreads': None, 'nobanner': False, 'pid_filename': 'httpserver.pid'}>"
p558
asbasbasbag56
(g72
g58
NtRp559
(dp560
g61
(dp561
sg70
g464
sg63
(lp562
g56
(g77
g58
NtRp563
(dp564
g61
(dp565
g81
g82
ssg70
g559
sg63
(lp566
S'db_sessions'
p567
asbag56
(g77
g58
NtRp568
(dp569
g61
(dp570
g88
g89
ssg70
g559
sg63
(lp571
S':'
asbag56
(g77
g58
NtRp572
(dp573
g61
(dp574
sg70
g559
sg63
(lp575
g56
(g57
g58
NtRp576
(dp577
g61
(dp578
g69
I4
ssg70
g572
sg63
(lp579
S'set([])'
p580
asbasbasbag56
(g72
g58
NtRp581
(dp582
g61
(dp583
sg70
g464
sg63
(lp584
g56
(g77
g58
NtRp585
(dp586
g61
(dp587
g81
g82
ssg70
g581
sg63
(lp588
S'debugging'
p589
asbag56
(g77
g58
NtRp590
(dp591
g61
(dp592
g88
g89
ssg70
g581
sg63
(lp593
S':'
asbag56
(g77
g58
NtRp594
(dp595
g61
(dp596
sg70
g581
sg63
(lp597
g56
(g57
g58
NtRp598
(dp599
g61
(dp600
g69
I4
ssg70
g594
sg63
(lp601
g99
asbasbasbag56
(g72
g58
NtRp602
(dp603
g61
(dp604
sg70
g464
sg63
(lp605
g56
(g77
g58
NtRp606
(dp607
g61
(dp608
g81
g82
ssg70
g602
sg63
(lp609
S'gluon_parent'
p610
asbag56
(g77
g58
NtRp611
(dp612
g61
(dp613
g88
g89
ssg70
g602
sg63
(lp614
S':'
asbag56
(g77
g58
NtRp615
(dp616
g61
(dp617
sg70
g602
sg63
(lp618
g56
(g57
g58
NtRp619
(dp620
g61
(dp621
g69
I4
ssg70
g615
sg63
(lp622
S'/home/diazluis2007/web2py'
p623
asbasbasbag56
(g72
g58
NtRp624
(dp625
g61
(dp626
sg70
g464
sg63
(lp627
g56
(g77
g58
NtRp628
(dp629
g61
(dp630
g81
g82
ssg70
g624
sg63
(lp631
S'http_accept'
p632
asbag56
(g77
g58
NtRp633
(dp634
g61
(dp635
g88
g89
ssg70
g624
sg63
(lp636
S':'
asbag56
(g77
g58
NtRp637
(dp638
g61
(dp639
sg70
g624
sg63
(lp640
g56
(g57
g58
NtRp641
(dp642
g61
(dp643
g69
I4
ssg70
g637
sg63
(lp644
S'text/html,application/xhtml+xml,application/xml;q=0.9,*/*;q=0.8'
p645
asbasbasbag56
(g72
g58
NtRp646
(dp647
g61
(dp648
sg70
g464
sg63
(lp649
g56
(g77
g58
NtRp650
(dp651
g61
(dp652
g81
g82
ssg70
g646
sg63
(lp653
S'http_accept_charset'
p654
asbag56
(g77
g58
NtRp655
(dp656
g61
(dp657
g88
g89
ssg70
g646
sg63
(lp658
S':'
asbag56
(g77
g58
NtRp659
(dp660
g61
(dp661
sg70
g646
sg63
(lp662
g56
(g57
g58
NtRp663
(dp664
g61
(dp665
g69
I4
ssg70
g659
sg63
(lp666
S'ISO-8859-1,utf-8;q=0.7,*;q=0.7'
p667
asbasbasbag56
(g72
g58
NtRp668
(dp669
g61
(dp670
sg70
g464
sg63
(lp671
g56
(g77
g58
NtRp672
(dp673
g61
(dp674
g81
g82
ssg70
g668
sg63
(lp675
S'http_accept_encoding'
p676
asbag56
(g77
g58
NtRp677
(dp678
g61
(dp679
g88
g89
ssg70
g668
sg63
(lp680
S':'
asbag56
(g77
g58
NtRp681
(dp682
g61
(dp683
sg70
g668
sg63
(lp684
g56
(g57
g58
NtRp685
(dp686
g61
(dp687
g69
I4
ssg70
g681
sg63
(lp688
S'gzip,deflate'
p689
asbasbasbag56
(g72
g58
NtRp690
(dp691
g61
(dp692
sg70
g464
sg63
(lp693
g56
(g77
g58
NtRp694
(dp695
g61
(dp696
g81
g82
ssg70
g690
sg63
(lp697
S'http_accept_language'
p698
asbag56
(g77
g58
NtRp699
(dp700
g61
(dp701
g88
g89
ssg70
g690
sg63
(lp702
S':'
asbag56
(g77
g58
NtRp703
(dp704
g61
(dp705
sg70
g690
sg63
(lp706
g56
(g57
g58
NtRp707
(dp708
g61
(dp709
g69
I4
ssg70
g703
sg63
(lp710
S'es-ar,es;q=0.8,en-us;q=0.5,en;q=0.3'
p711
asbasbasbag56
(g72
g58
NtRp712
(dp713
g61
(dp714
sg70
g464
sg63
(lp715
g56
(g77
g58
NtRp716
(dp717
g61
(dp718
g81
g82
ssg70
g712
sg63
(lp719
S'http_connection'
p720
asbag56
(g77
g58
NtRp721
(dp722
g61
(dp723
g88
g89
ssg70
g712
sg63
(lp724
S':'
asbag56
(g77
g58
NtRp725
(dp726
g61
(dp727
sg70
g712
sg63
(lp728
g56
(g57
g58
NtRp729
(dp730
g61
(dp731
g69
I4
ssg70
g725
sg63
(lp732
S'keep-alive'
p733
asbasbasbag56
(g72
g58
NtRp734
(dp735
g61
(dp736
sg70
g464
sg63
(lp737
g56
(g77
g58
NtRp738
(dp739
g61
(dp740
g81
g82
ssg70
g734
sg63
(lp741
S'http_cookie'
p742
asbag56
(g77
g58
NtRp743
(dp744
g61
(dp745
g88
g89
ssg70
g734
sg63
(lp746
S':'
asbag56
(g77
g58
NtRp747
(dp748
g61
(dp749
sg70
g734
sg63
(lp750
g56
(g57
g58
NtRp751
(dp752
g61
(dp753
g69
I4
ssg70
g747
sg63
(lp754
S'session_id_scec=127.0.0.1-7a694512-6089-40ba-be51-63c4294fd540'
p755
asbasbasbag56
(g72
g58
NtRp756
(dp757
g61
(dp758
sg70
g464
sg63
(lp759
g56
(g77
g58
NtRp760
(dp761
g61
(dp762
g81
g82
ssg70
g756
sg63
(lp763
S'http_host'
p764
asbag56
(g77
g58
NtRp765
(dp766
g61
(dp767
g88
g89
ssg70
g756
sg63
(lp768
S':'
asbag56
(g77
g58
NtRp769
(dp770
g61
(dp771
sg70
g756
sg63
(lp772
g56
(g57
g58
NtRp773
(dp774
g61
(dp775
g69
I4
ssg70
g769
sg63
(lp776
S'127.0.0.1:8000'
p777
asbasbasbag56
(g72
g58
NtRp778
(dp779
g61
(dp780
sg70
g464
sg63
(lp781
g56
(g77
g58
NtRp782
(dp783
g61
(dp784
g81
g82
ssg70
g778
sg63
(lp785
S'http_keep_alive'
p786
asbag56
(g77
g58
NtRp787
(dp788
g61
(dp789
g88
g89
ssg70
g778
sg63
(lp790
S':'
asbag56
(g77
g58
NtRp791
(dp792
g61
(dp793
sg70
g778
sg63
(lp794
g56
(g57
g58
NtRp795
(dp796
g61
(dp797
g69
I4
ssg70
g791
sg63
(lp798
S'300'
p799
asbasbasbag56
(g72
g58
NtRp800
(dp801
g61
(dp802
sg70
g464
sg63
(lp803
g56
(g77
g58
NtRp804
(dp805
g61
(dp806
g81
g82
ssg70
g800
sg63
(lp807
S'http_referer'
p808
asbag56
(g77
g58
NtRp809
(dp810
g61
(dp811
g88
g89
ssg70
g800
sg63
(lp812
S':'
asbag56
(g77
g58
NtRp813
(dp814
g61
(dp815
sg70
g800
sg63
(lp816
g56
(g57
g58
NtRp817
(dp818
g61
(dp819
g69
I4
ssg70
g813
sg63
(lp820
S'http://127.0.0.1:8000/scec/default/index'
p821
asbasbasbag56
(g72
g58
NtRp822
(dp823
g61
(dp824
sg70
g464
sg63
(lp825
g56
(g77
g58
NtRp826
(dp827
g61
(dp828
g81
g82
ssg70
g822
sg63
(lp829
S'http_user_agent'
p830
asbag56
(g77
g58
NtRp831
(dp832
g61
(dp833
g88
g89
ssg70
g822
sg63
(lp834
S':'
asbag56
(g77
g58
NtRp835
(dp836
g61
(dp837
sg70
g822
sg63
(lp838
g56
(g57
g58
NtRp839
(dp840
g61
(dp841
g69
I4
ssg70
g835
sg63
(lp842
S'Mozilla/5.0 (X11; U; Linux x86_64; es-AR; rv:1.9.1.16) Gecko/20110701 Iceweasel/3.5.16 (like Firefox/3.5.16)'
p843
asbasbasbag56
(g72
g58
NtRp844
(dp845
g61
(dp846
sg70
g464
sg63
(lp847
g56
(g77
g58
NtRp848
(dp849
g61
(dp850
g81
g82
ssg70
g844
sg63
(lp851
S'path_info'
p852
asbag56
(g77
g58
NtRp853
(dp854
g61
(dp855
g88
g89
ssg70
g844
sg63
(lp856
S':'
asbag56
(g77
g58
NtRp857
(dp858
g61
(dp859
sg70
g844
sg63
(lp860
g56
(g57
g58
NtRp861
(dp862
g61
(dp863
g69
I4
ssg70
g857
sg63
(lp864
S'/scec/default/user/login'
p865
asbasbasbag56
(g72
g58
NtRp866
(dp867
g61
(dp868
sg70
g464
sg63
(lp869
g56
(g77
g58
NtRp870
(dp871
g61
(dp872
g81
g82
ssg70
g866
sg63
(lp873
S'query_string'
p874
asbag56
(g77
g58
NtRp875
(dp876
g61
(dp877
g88
g89
ssg70
g866
sg63
(lp878
S':'
asbag56
(g77
g58
NtRp879
(dp880
g61
(dp881
sg70
g866
sg63
(lp882
g56
(g57
g58
NtRp883
(dp884
g61
(dp885
g69
I4
ssg70
g879
sg63
(lp886
S''
asbasbasbag56
(g72
g58
NtRp887
(dp888
g61
(dp889
sg70
g464
sg63
(lp890
g56
(g77
g58
NtRp891
(dp892
g61
(dp893
g81
g82
ssg70
g887
sg63
(lp894
S'remote_addr'
p895
asbag56
(g77
g58
NtRp896
(dp897
g61
(dp898
g88
g89
ssg70
g887
sg63
(lp899
S':'
asbag56
(g77
g58
NtRp900
(dp901
g61
(dp902
sg70
g887
sg63
(lp903
g56
(g57
g58
NtRp904
(dp905
g61
(dp906
g69
I4
ssg70
g900
sg63
(lp907
g202
asbasbasbag56
(g72
g58
NtRp908
(dp909
g61
(dp910
sg70
g464
sg63
(lp911
g56
(g77
g58
NtRp912
(dp913
g61
(dp914
g81
g82
ssg70
g908
sg63
(lp915
S'remote_port'
p916
asbag56
(g77
g58
NtRp917
(dp918
g61
(dp919
g88
g89
ssg70
g908
sg63
(lp920
S':'
asbag56
(g77
g58
NtRp921
(dp922
g61
(dp923
sg70
g908
sg63
(lp924
g56
(g57
g58
NtRp925
(dp926
g61
(dp927
g69
I4
ssg70
g921
sg63
(lp928
S'46365'
p929
asbasbasbag56
(g72
g58
NtRp930
(dp931
g61
(dp932
sg70
g464
sg63
(lp933
g56
(g77
g58
NtRp934
(dp935
g61
(dp936
g81
g82
ssg70
g930
sg63
(lp937
S'request_method'
p938
asbag56
(g77
g58
NtRp939
(dp940
g61
(dp941
g88
g89
ssg70
g930
sg63
(lp942
S':'
asbag56
(g77
g58
NtRp943
(dp944
g61
(dp945
sg70
g930
sg63
(lp946
g56
(g57
g58
NtRp947
(dp948
g61
(dp949
g69
I4
ssg70
g943
sg63
(lp950
S'GET'
p951
asbasbasbag56
(g72
g58
NtRp952
(dp953
g61
(dp954
sg70
g464
sg63
(lp955
g56
(g77
g58
NtRp956
(dp957
g61
(dp958
g81
g82
ssg70
g952
sg63
(lp959
S'script_name'
p960
asbag56
(g77
g58
NtRp961
(dp962
g61
(dp963
g88
g89
ssg70
g952
sg63
(lp964
S':'
asbag56
(g77
g58
NtRp965
(dp966
g61
(dp967
sg70
g952
sg63
(lp968
g56
(g57
g58
NtRp969
(dp970
g61
(dp971
g69
I4
ssg70
g965
sg63
(lp972
S''
asbasbasbag56
(g72
g58
NtRp973
(dp974
g61
(dp975
sg70
g464
sg63
(lp976
g56
(g77
g58
NtRp977
(dp978
g61
(dp979
g81
g82
ssg70
g973
sg63
(lp980
S'server_name'
p981
asbag56
(g77
g58
NtRp982
(dp983
g61
(dp984
g88
g89
ssg70
g973
sg63
(lp985
S':'
asbag56
(g77
g58
NtRp986
(dp987
g61
(dp988
sg70
g973
sg63
(lp989
g56
(g57
g58
NtRp990
(dp991
g61
(dp992
g69
I4
ssg70
g986
sg63
(lp993
S'morfeo'
p994
asbasbasbag56
(g72
g58
NtRp995
(dp996
g61
(dp997
sg70
g464
sg63
(lp998
g56
(g77
g58
NtRp999
(dp1000
g61
(dp1001
g81
g82
ssg70
g995
sg63
(lp1002
S'server_port'
p1003
asbag56
(g77
g58
NtRp1004
(dp1005
g61
(dp1006
g88
g89
ssg70
g995
sg63
(lp1007
S':'
asbag56
(g77
g58
NtRp1008
(dp1009
g61
(dp1010
sg70
g995
sg63
(lp1011
g56
(g57
g58
NtRp1012
(dp1013
g61
(dp1014
g69
I4
ssg70
g1008
sg63
(lp1015
S'8000'
p1016
asbasbasbag56
(g72
g58
NtRp1017
(dp1018
g61
(dp1019
sg70
g464
sg63
(lp1020
g56
(g77
g58
NtRp1021
(dp1022
g61
(dp1023
g81
g82
ssg70
g1017
sg63
(lp1024
S'server_protocol'
p1025
asbag56
(g77
g58
NtRp1026
(dp1027
g61
(dp1028
g88
g89
ssg70
g1017
sg63
(lp1029
S':'
asbag56
(g77
g58
NtRp1030
(dp1031
g61
(dp1032
sg70
g1017
sg63
(lp1033
g56
(g57
g58
NtRp1034
(dp1035
g61
(dp1036
g69
I4
ssg70
g1030
sg63
(lp1037
S'HTTP/1.1'
p1038
asbasbasbag56
(g72
g58
NtRp1039
(dp1040
g61
(dp1041
sg70
g464
sg63
(lp1042
g56
(g77
g58
NtRp1043
(dp1044
g61
(dp1045
g81
g82
ssg70
g1039
sg63
(lp1046
S'server_software'
p1047
asbag56
(g77
g58
NtRp1048
(dp1049
g61
(dp1050
g88
g89
ssg70
g1039
sg63
(lp1051
S':'
asbag56
(g77
g58
NtRp1052
(dp1053
g61
(dp1054
sg70
g1039
sg63
(lp1055
g56
(g57
g58
NtRp1056
(dp1057
g61
(dp1058
g69
I4
ssg70
g1052
sg63
(lp1059
S'Rocket 1.2.2'
p1060
asbasbasbag56
(g72
g58
NtRp1061
(dp1062
g61
(dp1063
sg70
g464
sg63
(lp1064
g56
(g77
g58
NtRp1065
(dp1066
g61
(dp1067
g81
g82
ssg70
g1061
sg63
(lp1068
S'web2py_crontype'
p1069
asbag56
(g77
g58
NtRp1070
(dp1071
g61
(dp1072
g88
g89
ssg70
g1061
sg63
(lp1073
S':'
asbag56
(g77
g58
NtRp1074
(dp1075
g61
(dp1076
sg70
g1061
sg63
(lp1077
g56
(g57
g58
NtRp1078
(dp1079
g61
(dp1080
g69
I4
ssg70
g1074
sg63
(lp1081
S'hard'
p1082
asbasbasbag56
(g72
g58
NtRp1083
(dp1084
g61
(dp1085
sg70
g464
sg63
(lp1086
g56
(g77
g58
NtRp1087
(dp1088
g61
(dp1089
g81
g82
ssg70
g1083
sg63
(lp1090
S'web2py_path'
p1091
asbag56
(g77
g58
NtRp1092
(dp1093
g61
(dp1094
g88
g89
ssg70
g1083
sg63
(lp1095
S':'
asbag56
(g77
g58
NtRp1096
(dp1097
g61
(dp1098
sg70
g1083
sg63
(lp1099
g56
(g57
g58
NtRp1100
(dp1101
g61
(dp1102
g69
I4
ssg70
g1096
sg63
(lp1103
g511
asbasbasbag56
(g72
g58
NtRp1104
(dp1105
g61
(dp1106
sg70
g464
sg63
(lp1107
g56
(g77
g58
NtRp1108
(dp1109
g61
(dp1110
g81
g82
ssg70
g1104
sg63
(lp1111
S'web2py_version'
p1112
asbag56
(g77
g58
NtRp1113
(dp1114
g61
(dp1115
g88
g89
ssg70
g1104
sg63
(lp1116
S':'
asbag56
(g77
g58
NtRp1117
(dp1118
g61
(dp1119
sg70
g1104
sg63
(lp1120
g56
(g57
g58
NtRp1121
(dp1122
g61
(dp1123
g69
I4
ssg70
g1117
sg63
(lp1124
S'Version 1.97.1 (2011-06-26 19:25:44)\n'
p1125
asbasbasbag56
(g72
g58
NtRp1126
(dp1127
g61
(dp1128
sg70
g464
sg63
(lp1129
g56
(g77
g58
NtRp1130
(dp1131
g61
(dp1132
g81
g82
ssg70
g1126
sg63
(lp1133
S'wsgi_errors'
p1134
asbag56
(g77
g58
NtRp1135
(dp1136
g61
(dp1137
g88
g89
ssg70
g1126
sg63
(lp1138
S':'
asbag56
(g77
g58
NtRp1139
(dp1140
g61
(dp1141
sg70
g1126
sg63
(lp1142
g56
(g57
g58
NtRp1143
(dp1144
g61
(dp1145
g69
I4
ssg70
g1139
sg63
(lp1146
S"<open file '<stderr>', mode 'w' at 0x7f76298491e0>"
p1147
asbasbasbag56
(g72
g58
NtRp1148
(dp1149
g61
(dp1150
sg70
g464
sg63
(lp1151
g56
(g77
g58
NtRp1152
(dp1153
g61
(dp1154
g81
g82
ssg70
g1148
sg63
(lp1155
S'wsgi_file_wrapper'
p1156
asbag56
(g77
g58
NtRp1157
(dp1158
g61
(dp1159
g88
g89
ssg70
g1148
sg63
(lp1160
S':'
asbag56
(g77
g58
NtRp1161
(dp1162
g61
(dp1163
sg70
g1148
sg63
(lp1164
g56
(g57
g58
NtRp1165
(dp1166
g61
(dp1167
g69
I4
ssg70
g1161
sg63
(lp1168
S'<class gluon.rocket.FileWrapper at 0x2703fb0>'
p1169
asbasbasbag56
(g72
g58
NtRp1170
(dp1171
g61
(dp1172
sg70
g464
sg63
(lp1173
g56
(g77
g58
NtRp1174
(dp1175
g61
(dp1176
g81
g82
ssg70
g1170
sg63
(lp1177
S'wsgi_input'
p1178
asbag56
(g77
g58
NtRp1179
(dp1180
g61
(dp1181
g88
g89
ssg70
g1170
sg63
(lp1182
S':'
asbag56
(g77
g58
NtRp1183
(dp1184
g61
(dp1185
sg70
g1170
sg63
(lp1186
g56
(g57
g58
NtRp1187
(dp1188
g61
(dp1189
g69
I4
ssg70
g1183
sg63
(lp1190
S'<socket._fileobject object at 0x2df4cd0>'
p1191
asbasbasbag56
(g72
g58
NtRp1192
(dp1193
g61
(dp1194
sg70
g464
sg63
(lp1195
g56
(g77
g58
NtRp1196
(dp1197
g61
(dp1198
g81
g82
ssg70
g1192
sg63
(lp1199
S'wsgi_multiprocess'
p1200
asbag56
(g77
g58
NtRp1201
(dp1202
g61
(dp1203
g88
g89
ssg70
g1192
sg63
(lp1204
S':'
asbag56
(g77
g58
NtRp1205
(dp1206
g61
(dp1207
sg70
g1192
sg63
(lp1208
g56
(g57
g58
NtRp1209
(dp1210
g61
(dp1211
g69
I4
ssg70
g1205
sg63
(lp1212
g99
asbasbasbag56
(g72
g58
NtRp1213
(dp1214
g61
(dp1215
sg70
g464
sg63
(lp1216
g56
(g77
g58
NtRp1217
(dp1218
g61
(dp1219
g81
g82
ssg70
g1213
sg63
(lp1220
S'wsgi_multithread'
p1221
asbag56
(g77
g58
NtRp1222
(dp1223
g61
(dp1224
g88
g89
ssg70
g1213
sg63
(lp1225
S':'
asbag56
(g77
g58
NtRp1226
(dp1227
g61
(dp1228
sg70
g1213
sg63
(lp1229
g56
(g57
g58
NtRp1230
(dp1231
g61
(dp1232
g69
I4
ssg70
g1226
sg63
(lp1233
S'True'
p1234
asbasbasbag56
(g72
g58
NtRp1235
(dp1236
g61
(dp1237
sg70
g464
sg63
(lp1238
g56
(g77
g58
NtRp1239
(dp1240
g61
(dp1241
g81
g82
ssg70
g1235
sg63
(lp1242
S'wsgi_run_once'
p1243
asbag56
(g77
g58
NtRp1244
(dp1245
g61
(dp1246
g88
g89
ssg70
g1235
sg63
(lp1247
S':'
asbag56
(g77
g58
NtRp1248
(dp1249
g61
(dp1250
sg70
g1235
sg63
(lp1251
g56
(g57
g58
NtRp1252
(dp1253
g61
(dp1254
g69
I4
ssg70
g1248
sg63
(lp1255
g99
asbasbasbag56
(g72
g58
NtRp1256
(dp1257
g61
(dp1258
sg70
g464
sg63
(lp1259
g56
(g77
g58
NtRp1260
(dp1261
g61
(dp1262
g81
g82
ssg70
g1256
sg63
(lp1263
S'wsgi_url_scheme'
p1264
asbag56
(g77
g58
NtRp1265
(dp1266
g61
(dp1267
g88
g89
ssg70
g1256
sg63
(lp1268
S':'
asbag56
(g77
g58
NtRp1269
(dp1270
g61
(dp1271
sg70
g1256
sg63
(lp1272
g56
(g57
g58
NtRp1273
(dp1274
g61
(dp1275
g69
I4
ssg70
g1269
sg63
(lp1276
S'http'
p1277
asbasbasbag56
(g72
g58
NtRp1278
(dp1279
g61
(dp1280
sg70
g464
sg63
(lp1281
g56
(g77
g58
NtRp1282
(dp1283
g61
(dp1284
g81
g82
ssg70
g1278
sg63
(lp1285
S'wsgi_version'
p1286
asbag56
(g77
g58
NtRp1287
(dp1288
g61
(dp1289
g88
g89
ssg70
g1278
sg63
(lp1290
S':'
asbag56
(g77
g58
NtRp1291
(dp1292
g61
(dp1293
sg70
g1278
sg63
(lp1294
g56
(g57
g58
NtRp1295
(dp1296
g61
(dp1297
g69
I4
ssg70
g1291
sg63
(lp1298
g56
(g65
g58
NtRp1299
(dp1300
g61
(dp1301
g69
I3
ssg70
Nsg63
(lp1302
g56
(g72
g58
NtRp1303
(dp1304
g61
(dp1305
sg70
g1299
sg63
(lp1306
g56
(g77
g58
NtRp1307
(dp1308
g61
(dp1309
sg70
g1303
sg63
(lp1310
g56
(g57
g58
NtRp1311
(dp1312
g61
(dp1313
g69
I3
ssg70
g1307
sg63
(lp1314
S'1'
asbasbasbag56
(g72
g58
NtRp1315
(dp1316
g61
(dp1317
sg70
g1299
sg63
(lp1318
g56
(g77
g58
NtRp1319
(dp1320
g61
(dp1321
sg70
g1315
sg63
(lp1322
g56
(g57
g58
NtRp1323
(dp1324
g61
(dp1325
g69
I3
ssg70
g1319
sg63
(lp1326
S'0'
asbasbasbasbasbasbasbasbasbasbasbag56
(g72
g58
NtRp1327
(dp1328
g61
(dp1329
sg70
g66
sg63
(lp1330
g56
(g77
g58
NtRp1331
(dp1332
g61
(dp1333
g81
g82
ssg70
g1327
sg63
(lp1334
S'extension'
p1335
asbag56
(g77
g58
NtRp1336
(dp1337
g61
(dp1338
g88
g89
ssg70
g1327
sg63
(lp1339
S':'
asbag56
(g77
g58
NtRp1340
(dp1341
g61
(dp1342
sg70
g1327
sg63
(lp1343
g56
(g57
g58
NtRp1344
(dp1345
g61
(dp1346
g69
I5
ssg70
g1340
sg63
(lp1347
S'html'
p1348
asbasbasbag56
(g72
g58
NtRp1349
(dp1350
g61
(dp1351
sg70
g66
sg63
(lp1352
g56
(g77
g58
NtRp1353
(dp1354
g61
(dp1355
g81
g82
ssg70
g1349
sg63
(lp1356
S'folder'
p1357
asbag56
(g77
g58
NtRp1358
(dp1359
g61
(dp1360
g88
g89
ssg70
g1349
sg63
(lp1361
S':'
asbag56
(g77
g58
NtRp1362
(dp1363
g61
(dp1364
sg70
g1349
sg63
(lp1365
g56
(g57
g58
NtRp1366
(dp1367
g61
(dp1368
g69
I5
ssg70
g1362
sg63
(lp1369
S'/home/diazluis2007/web2py/applications/scec/'
p1370
asbasbasbag56
(g72
g58
NtRp1371
(dp1372
g61
(dp1373
sg70
g66
sg63
(lp1374
g56
(g77
g58
NtRp1375
(dp1376
g61
(dp1377
g81
g82
ssg70
g1371
sg63
(lp1378
S'function'
p1379
asbag56
(g77
g58
NtRp1380
(dp1381
g61
(dp1382
g88
g89
ssg70
g1371
sg63
(lp1383
S':'
asbag56
(g77
g58
NtRp1384
(dp1385
g61
(dp1386
sg70
g1371
sg63
(lp1387
g56
(g57
g58
NtRp1388
(dp1389
g61
(dp1390
g69
I5
ssg70
g1384
sg63
(lp1391
S'user'
p1392
asbasbasbag56
(g72
g58
NtRp1393
(dp1394
g61
(dp1395
sg70
g66
sg63
(lp1396
g56
(g77
g58
NtRp1397
(dp1398
g61
(dp1399
g81
g82
ssg70
g1393
sg63
(lp1400
S'get_vars'
p1401
asbag56
(g77
g58
NtRp1402
(dp1403
g61
(dp1404
g88
g89
ssg70
g1393
sg63
(lp1405
S':'
asbag56
(g77
g58
NtRp1406
(dp1407
g61
(dp1408
sg70
g1393
sg63
(lp1409
g56
(g57
g58
NtRp1410
(dp1411
g61
(dp1412
g69
I5
ssg70
g1406
sg63
(lp1413
g56
(g65
g58
NtRp1414
(dp1415
g61
(dp1416
g69
I4
ssg70
Nsg63
(lp1417
sbasbasbasbag56
(g72
g58
NtRp1418
(dp1419
g61
(dp1420
sg70
g66
sg63
(lp1421
g56
(g77
g58
NtRp1422
(dp1423
g61
(dp1424
g81
g82
ssg70
g1418
sg63
(lp1425
S'is_https'
p1426
asbag56
(g77
g58
NtRp1427
(dp1428
g61
(dp1429
g88
g89
ssg70
g1418
sg63
(lp1430
S':'
asbag56
(g77
g58
NtRp1431
(dp1432
g61
(dp1433
sg70
g1418
sg63
(lp1434
g56
(g57
g58
NtRp1435
(dp1436
g61
(dp1437
g69
I5
ssg70
g1431
sg63
(lp1438
g99
asbasbasbag56
(g72
g58
NtRp1439
(dp1440
g61
(dp1441
sg70
g66
sg63
(lp1442
g56
(g77
g58
NtRp1443
(dp1444
g61
(dp1445
g81
g82
ssg70
g1439
sg63
(lp1446
S'is_local'
p1447
asbag56
(g77
g58
NtRp1448
(dp1449
g61
(dp1450
g88
g89
ssg70
g1439
sg63
(lp1451
S':'
asbag56
(g77
g58
NtRp1452
(dp1453
g61
(dp1454
sg70
g1439
sg63
(lp1455
g56
(g57
g58
NtRp1456
(dp1457
g61
(dp1458
g69
I5
ssg70
g1452
sg63
(lp1459
g1234
asbasbasbag56
(g72
g58
NtRp1460
(dp1461
g61
(dp1462
sg70
g66
sg63
(lp1463
g56
(g77
g58
NtRp1464
(dp1465
g61
(dp1466
g81
g82
ssg70
g1460
sg63
(lp1467
S'is_restful'
p1468
asbag56
(g77
g58
NtRp1469
(dp1470
g61
(dp1471
g88
g89
ssg70
g1460
sg63
(lp1472
S':'
asbag56
(g77
g58
NtRp1473
(dp1474
g61
(dp1475
sg70
g1460
sg63
(lp1476
g56
(g57
g58
NtRp1477
(dp1478
g61
(dp1479
g69
I5
ssg70
g1473
sg63
(lp1480
g99
asbasbasbag56
(g72
g58
NtRp1481
(dp1482
g61
(dp1483
sg70
g66
sg63
(lp1484
g56
(g77
g58
NtRp1485
(dp1486
g61
(dp1487
g81
g82
ssg70
g1481
sg63
(lp1488
S'now'
p1489
asbag56
(g77
g58
NtRp1490
(dp1491
g61
(dp1492
g88
g89
ssg70
g1481
sg63
(lp1493
S':'
asbag56
(g77
g58
NtRp1494
(dp1495
g61
(dp1496
sg70
g1481
sg63
(lp1497
g56
(g57
g58
NtRp1498
(dp1499
g61
(dp1500
g69
I5
ssg70
g1494
sg63
(lp1501
S'datetime.datetime(2011, 7, 31, 22, 5, 43, 38898)'
p1502
asbasbasbag56
(g72
g58
NtRp1503
(dp1504
g61
(dp1505
sg70
g66
sg63
(lp1506
g56
(g77
g58
NtRp1507
(dp1508
g61
(dp1509
g81
g82
ssg70
g1503
sg63
(lp1510
S'post_vars'
p1511
asbag56
(g77
g58
NtRp1512
(dp1513
g61
(dp1514
g88
g89
ssg70
g1503
sg63
(lp1515
S':'
asbag56
(g77
g58
NtRp1516
(dp1517
g61
(dp1518
sg70
g1503
sg63
(lp1519
g56
(g57
g58
NtRp1520
(dp1521
g61
(dp1522
g69
I5
ssg70
g1516
sg63
(lp1523
g56
(g65
g58
NtRp1524
(dp1525
g61
(dp1526
g69
I4
ssg70
Nsg63
(lp1527
sbasbasbasbag56
(g72
g58
NtRp1528
(dp1529
g61
(dp1530
sg70
g66
sg63
(lp1531
g56
(g77
g58
NtRp1532
(dp1533
g61
(dp1534
g81
g82
ssg70
g1528
sg63
(lp1535
S'raw_args'
p1536
asbag56
(g77
g58
NtRp1537
(dp1538
g61
(dp1539
g88
g89
ssg70
g1528
sg63
(lp1540
S':'
asbag56
(g77
g58
NtRp1541
(dp1542
g61
(dp1543
sg70
g1528
sg63
(lp1544
g56
(g57
g58
NtRp1545
(dp1546
g61
(dp1547
g69
I5
ssg70
g1541
sg63
(lp1548
g158
asbasbasbag56
(g72
g58
NtRp1549
(dp1550
g61
(dp1551
sg70
g66
sg63
(lp1552
g56
(g77
g58
NtRp1553
(dp1554
g61
(dp1555
g81
g82
ssg70
g1549
sg63
(lp1556
S'url'
p1557
asbag56
(g77
g58
NtRp1558
(dp1559
g61
(dp1560
g88
g89
ssg70
g1549
sg63
(lp1561
S':'
asbag56
(g77
g58
NtRp1562
(dp1563
g61
(dp1564
sg70
g1549
sg63
(lp1565
g56
(g57
g58
NtRp1566
(dp1567
g61
(dp1568
g69
I5
ssg70
g1562
sg63
(lp1569
S'/scec/default/user/login'
p1570
asbasbasbag56
(g72
g58
NtRp1571
(dp1572
g61
(dp1573
sg70
g66
sg63
(lp1574
g56
(g77
g58
NtRp1575
(dp1576
g61
(dp1577
g81
g82
ssg70
g1571
sg63
(lp1578
S'uuid'
p1579
asbag56
(g77
g58
NtRp1580
(dp1581
g61
(dp1582
g88
g89
ssg70
g1571
sg63
(lp1583
S':'
asbag56
(g77
g58
NtRp1584
(dp1585
g61
(dp1586
sg70
g1571
sg63
(lp1587
g56
(g57
g58
NtRp1588
(dp1589
g61
(dp1590
g69
I5
ssg70
g1584
sg63
(lp1591
S'scec/127.0.0.1.2011-07-31.22-05-43.ec235a61-c03d-4d41-b81d-49ac446407d5'
p1592
asbasbasbag56
(g72
g58
NtRp1593
(dp1594
g61
(dp1595
sg70
g66
sg63
(lp1596
g56
(g77
g58
NtRp1597
(dp1598
g61
(dp1599
g81
g82
ssg70
g1593
sg63
(lp1600
S'vars'
p1601
asbag56
(g77
g58
NtRp1602
(dp1603
g61
(dp1604
g88
g89
ssg70
g1593
sg63
(lp1605
S':'
asbag56
(g77
g58
NtRp1606
(dp1607
g61
(dp1608
sg70
g1593
sg63
(lp1609
g56
(g57
g58
NtRp1610
(dp1611
g61
(dp1612
g69
I5
ssg70
g1606
sg63
(lp1613
g56
(g65
g58
NtRp1614
(dp1615
g61
(dp1616
g69
I4
ssg70
Nsg63
(lp1617
sbasbasbasbag56
(g72
g58
NtRp1618
(dp1619
g61
(dp1620
sg70
g66
sg63
(lp1621
g56
(g77
g58
NtRp1622
(dp1623
g61
(dp1624
g81
g82
ssg70
g1618
sg63
(lp1625
S'wsgi'
p1626
asbag56
(g77
g58
NtRp1627
(dp1628
g61
(dp1629
g88
g89
ssg70
g1618
sg63
(lp1630
S':'
asbag56
(g77
g58
NtRp1631
(dp1632
g61
(dp1633
sg70
g1618
sg63
(lp1634
g56
(g57
g58
NtRp1635
(dp1636
g61
(dp1637
g69
I5
ssg70
g1631
sg63
(lp1638
g56
(g65
g58
NtRp1639
(dp1640
g61
(dp1641
g69
I4
ssg70
Nsg63
(lp1642
g56
(g72
g58
NtRp1643
(dp1644
g61
(dp1645
sg70
g1639
sg63
(lp1646
g56
(g77
g58
NtRp1647
(dp1648
g61
(dp1649
g81
g82
ssg70
g1643
sg63
(lp1650
S'environ'
p1651
asbag56
(g77
g58
NtRp1652
(dp1653
g61
(dp1654
g88
g89
ssg70
g1643
sg63
(lp1655
S':'
asbag56
(g77
g58
NtRp1656
(dp1657
g61
(dp1658
sg70
g1643
sg63
(lp1659
g56
(g57
g58
NtRp1660
(dp1661
g61
(dp1662
g69
I4
ssg70
g1656
sg63
(lp1663
g56
(g65
g58
NtRp1664
(dp1665
g61
(dp1666
g69
I3
ssg70
Nsg63
(lp1667
g56
(g72
g58
NtRp1668
(dp1669
g61
(dp1670
sg70
g1664
sg63
(lp1671
g56
(g77
g58
NtRp1672
(dp1673
g61
(dp1674
g81
g82
ssg70
g1668
sg63
(lp1675
S'HTTP_ACCEPT'
p1676
asbag56
(g77
g58
NtRp1677
(dp1678
g61
(dp1679
g88
g89
ssg70
g1668
sg63
(lp1680
S':'
asbag56
(g77
g58
NtRp1681
(dp1682
g61
(dp1683
sg70
g1668
sg63
(lp1684
g56
(g57
g58
NtRp1685
(dp1686
g61
(dp1687
g69
I3
ssg70
g1681
sg63
(lp1688
g645
asbasbasbag56
(g72
g58
NtRp1689
(dp1690
g61
(dp1691
sg70
g1664
sg63
(lp1692
g56
(g77
g58
NtRp1693
(dp1694
g61
(dp1695
g81
g82
ssg70
g1689
sg63
(lp1696
S'HTTP_ACCEPT_CHARSET'
p1697
asbag56
(g77
g58
NtRp1698
(dp1699
g61
(dp1700
g88
g89
ssg70
g1689
sg63
(lp1701
S':'
asbag56
(g77
g58
NtRp1702
(dp1703
g61
(dp1704
sg70
g1689
sg63
(lp1705
g56
(g57
g58
NtRp1706
(dp1707
g61
(dp1708
g69
I3
ssg70
g1702
sg63
(lp1709
g667
asbasbasbag56
(g72
g58
NtRp1710
(dp1711
g61
(dp1712
sg70
g1664
sg63
(lp1713
g56
(g77
g58
NtRp1714
(dp1715
g61
(dp1716
g81
g82
ssg70
g1710
sg63
(lp1717
S'HTTP_ACCEPT_ENCODING'
p1718
asbag56
(g77
g58
NtRp1719
(dp1720
g61
(dp1721
g88
g89
ssg70
g1710
sg63
(lp1722
S':'
asbag56
(g77
g58
NtRp1723
(dp1724
g61
(dp1725
sg70
g1710
sg63
(lp1726
g56
(g57
g58
NtRp1727
(dp1728
g61
(dp1729
g69
I3
ssg70
g1723
sg63
(lp1730
g689
asbasbasbag56
(g72
g58
NtRp1731
(dp1732
g61
(dp1733
sg70
g1664
sg63
(lp1734
g56
(g77
g58
NtRp1735
(dp1736
g61
(dp1737
g81
g82
ssg70
g1731
sg63
(lp1738
S'HTTP_ACCEPT_LANGUAGE'
p1739
asbag56
(g77
g58
NtRp1740
(dp1741
g61
(dp1742
g88
g89
ssg70
g1731
sg63
(lp1743
S':'
asbag56
(g77
g58
NtRp1744
(dp1745
g61
(dp1746
sg70
g1731
sg63
(lp1747
g56
(g57
g58
NtRp1748
(dp1749
g61
(dp1750
g69
I3
ssg70
g1744
sg63
(lp1751
g711
asbasbasbag56
(g72
g58
NtRp1752
(dp1753
g61
(dp1754
sg70
g1664
sg63
(lp1755
g56
(g77
g58
NtRp1756
(dp1757
g61
(dp1758
g81
g82
ssg70
g1752
sg63
(lp1759
S'HTTP_CONNECTION'
p1760
asbag56
(g77
g58
NtRp1761
(dp1762
g61
(dp1763
g88
g89
ssg70
g1752
sg63
(lp1764
S':'
asbag56
(g77
g58
NtRp1765
(dp1766
g61
(dp1767
sg70
g1752
sg63
(lp1768
g56
(g57
g58
NtRp1769
(dp1770
g61
(dp1771
g69
I3
ssg70
g1765
sg63
(lp1772
g733
asbasbasbag56
(g72
g58
NtRp1773
(dp1774
g61
(dp1775
sg70
g1664
sg63
(lp1776
g56
(g77
g58
NtRp1777
(dp1778
g61
(dp1779
g81
g82
ssg70
g1773
sg63
(lp1780
S'HTTP_COOKIE'
p1781
asbag56
(g77
g58
NtRp1782
(dp1783
g61
(dp1784
g88
g89
ssg70
g1773
sg63
(lp1785
S':'
asbag56
(g77
g58
NtRp1786
(dp1787
g61
(dp1788
sg70
g1773
sg63
(lp1789
g56
(g57
g58
NtRp1790
(dp1791
g61
(dp1792
g69
I3
ssg70
g1786
sg63
(lp1793
g755
asbasbasbag56
(g72
g58
NtRp1794
(dp1795
g61
(dp1796
sg70
g1664
sg63
(lp1797
g56
(g77
g58
NtRp1798
(dp1799
g61
(dp1800
g81
g82
ssg70
g1794
sg63
(lp1801
S'HTTP_HOST'
p1802
asbag56
(g77
g58
NtRp1803
(dp1804
g61
(dp1805
g88
g89
ssg70
g1794
sg63
(lp1806
S':'
asbag56
(g77
g58
NtRp1807
(dp1808
g61
(dp1809
sg70
g1794
sg63
(lp1810
g56
(g57
g58
NtRp1811
(dp1812
g61
(dp1813
g69
I3
ssg70
g1807
sg63
(lp1814
g777
asbasbasbag56
(g72
g58
NtRp1815
(dp1816
g61
(dp1817
sg70
g1664
sg63
(lp1818
g56
(g77
g58
NtRp1819
(dp1820
g61
(dp1821
g81
g82
ssg70
g1815
sg63
(lp1822
S'HTTP_KEEP_ALIVE'
p1823
asbag56
(g77
g58
NtRp1824
(dp1825
g61
(dp1826
g88
g89
ssg70
g1815
sg63
(lp1827
S':'
asbag56
(g77
g58
NtRp1828
(dp1829
g61
(dp1830
sg70
g1815
sg63
(lp1831
g56
(g57
g58
NtRp1832
(dp1833
g61
(dp1834
g69
I3
ssg70
g1828
sg63
(lp1835
g799
asbasbasbag56
(g72
g58
NtRp1836
(dp1837
g61
(dp1838
sg70
g1664
sg63
(lp1839
g56
(g77
g58
NtRp1840
(dp1841
g61
(dp1842
g81
g82
ssg70
g1836
sg63
(lp1843
S'HTTP_REFERER'
p1844
asbag56
(g77
g58
NtRp1845
(dp1846
g61
(dp1847
g88
g89
ssg70
g1836
sg63
(lp1848
S':'
asbag56
(g77
g58
NtRp1849
(dp1850
g61
(dp1851
sg70
g1836
sg63
(lp1852
g56
(g57
g58
NtRp1853
(dp1854
g61
(dp1855
g69
I3
ssg70
g1849
sg63
(lp1856
g821
asbasbasbag56
(g72
g58
NtRp1857
(dp1858
g61
(dp1859
sg70
g1664
sg63
(lp1860
g56
(g77
g58
NtRp1861
(dp1862
g61
(dp1863
g81
g82
ssg70
g1857
sg63
(lp1864
S'HTTP_USER_AGENT'
p1865
asbag56
(g77
g58
NtRp1866
(dp1867
g61
(dp1868
g88
g89
ssg70
g1857
sg63
(lp1869
S':'
asbag56
(g77
g58
NtRp1870
(dp1871
g61
(dp1872
sg70
g1857
sg63
(lp1873
g56
(g57
g58
NtRp1874
(dp1875
g61
(dp1876
g69
I3
ssg70
g1870
sg63
(lp1877
g843
asbasbasbag56
(g72
g58
NtRp1878
(dp1879
g61
(dp1880
sg70
g1664
sg63
(lp1881
g56
(g77
g58
NtRp1882
(dp1883
g61
(dp1884
g81
g82
ssg70
g1878
sg63
(lp1885
S'PATH_INFO'
p1886
asbag56
(g77
g58
NtRp1887
(dp1888
g61
(dp1889
g88
g89
ssg70
g1878
sg63
(lp1890
S':'
asbag56
(g77
g58
NtRp1891
(dp1892
g61
(dp1893
sg70
g1878
sg63
(lp1894
g56
(g57
g58
NtRp1895
(dp1896
g61
(dp1897
g69
I3
ssg70
g1891
sg63
(lp1898
g865
asbasbasbag56
(g72
g58
NtRp1899
(dp1900
g61
(dp1901
sg70
g1664
sg63
(lp1902
g56
(g77
g58
NtRp1903
(dp1904
g61
(dp1905
g81
g82
ssg70
g1899
sg63
(lp1906
S'QUERY_STRING'
p1907
asbag56
(g77
g58
NtRp1908
(dp1909
g61
(dp1910
g88
g89
ssg70
g1899
sg63
(lp1911
S':'
asbag56
(g77
g58
NtRp1912
(dp1913
g61
(dp1914
sg70
g1899
sg63
(lp1915
g56
(g57
g58
NtRp1916
(dp1917
g61
(dp1918
g69
I3
ssg70
g1912
sg63
(lp1919
S''
asbasbasbag56
(g72
g58
NtRp1920
(dp1921
g61
(dp1922
sg70
g1664
sg63
(lp1923
g56
(g77
g58
NtRp1924
(dp1925
g61
(dp1926
g81
g82
ssg70
g1920
sg63
(lp1927
S'REMOTE_ADDR'
p1928
asbag56
(g77
g58
NtRp1929
(dp1930
g61
(dp1931
g88
g89
ssg70
g1920
sg63
(lp1932
S':'
asbag56
(g77
g58
NtRp1933
(dp1934
g61
(dp1935
sg70
g1920
sg63
(lp1936
g56
(g57
g58
NtRp1937
(dp1938
g61
(dp1939
g69
I3
ssg70
g1933
sg63
(lp1940
g202
asbasbasbag56
(g72
g58
NtRp1941
(dp1942
g61
(dp1943
sg70
g1664
sg63
(lp1944
g56
(g77
g58
NtRp1945
(dp1946
g61
(dp1947
g81
g82
ssg70
g1941
sg63
(lp1948
S'REMOTE_PORT'
p1949
asbag56
(g77
g58
NtRp1950
(dp1951
g61
(dp1952
g88
g89
ssg70
g1941
sg63
(lp1953
S':'
asbag56
(g77
g58
NtRp1954
(dp1955
g61
(dp1956
sg70
g1941
sg63
(lp1957
g56
(g57
g58
NtRp1958
(dp1959
g61
(dp1960
g69
I3
ssg70
g1954
sg63
(lp1961
g929
asbasbasbag56
(g72
g58
NtRp1962
(dp1963
g61
(dp1964
sg70
g1664
sg63
(lp1965
g56
(g77
g58
NtRp1966
(dp1967
g61
(dp1968
g81
g82
ssg70
g1962
sg63
(lp1969
S'REQUEST_METHOD'
p1970
asbag56
(g77
g58
NtRp1971
(dp1972
g61
(dp1973
g88
g89
ssg70
g1962
sg63
(lp1974
S':'
asbag56
(g77
g58
NtRp1975
(dp1976
g61
(dp1977
sg70
g1962
sg63
(lp1978
g56
(g57
g58
NtRp1979
(dp1980
g61
(dp1981
g69
I3
ssg70
g1975
sg63
(lp1982
g951
asbasbasbag56
(g72
g58
NtRp1983
(dp1984
g61
(dp1985
sg70
g1664
sg63
(lp1986
g56
(g77
g58
NtRp1987
(dp1988
g61
(dp1989
g81
g82
ssg70
g1983
sg63
(lp1990
S'SCRIPT_NAME'
p1991
asbag56
(g77
g58
NtRp1992
(dp1993
g61
(dp1994
g88
g89
ssg70
g1983
sg63
(lp1995
S':'
asbag56
(g77
g58
NtRp1996
(dp1997
g61
(dp1998
sg70
g1983
sg63
(lp1999
g56
(g57
g58
NtRp2000
(dp2001
g61
(dp2002
g69
I3
ssg70
g1996
sg63
(lp2003
S''
asbasbasbag56
(g72
g58
NtRp2004
(dp2005
g61
(dp2006
sg70
g1664
sg63
(lp2007
g56
(g77
g58
NtRp2008
(dp2009
g61
(dp2010
g81
g82
ssg70
g2004
sg63
(lp2011
S'SERVER_NAME'
p2012
asbag56
(g77
g58
NtRp2013
(dp2014
g61
(dp2015
g88
g89
ssg70
g2004
sg63
(lp2016
S':'
asbag56
(g77
g58
NtRp2017
(dp2018
g61
(dp2019
sg70
g2004
sg63
(lp2020
g56
(g57
g58
NtRp2021
(dp2022
g61
(dp2023
g69
I3
ssg70
g2017
sg63
(lp2024
g994
asbasbasbag56
(g72
g58
NtRp2025
(dp2026
g61
(dp2027
sg70
g1664
sg63
(lp2028
g56
(g77
g58
NtRp2029
(dp2030
g61
(dp2031
g81
g82
ssg70
g2025
sg63
(lp2032
S'SERVER_PORT'
p2033
asbag56
(g77
g58
NtRp2034
(dp2035
g61
(dp2036
g88
g89
ssg70
g2025
sg63
(lp2037
S':'
asbag56
(g77
g58
NtRp2038
(dp2039
g61
(dp2040
sg70
g2025
sg63
(lp2041
g56
(g57
g58
NtRp2042
(dp2043
g61
(dp2044
g69
I3
ssg70
g2038
sg63
(lp2045
g1016
asbasbasbag56
(g72
g58
NtRp2046
(dp2047
g61
(dp2048
sg70
g1664
sg63
(lp2049
g56
(g77
g58
NtRp2050
(dp2051
g61
(dp2052
g81
g82
ssg70
g2046
sg63
(lp2053
S'SERVER_PROTOCOL'
p2054
asbag56
(g77
g58
NtRp2055
(dp2056
g61
(dp2057
g88
g89
ssg70
g2046
sg63
(lp2058
S':'
asbag56
(g77
g58
NtRp2059
(dp2060
g61
(dp2061
sg70
g2046
sg63
(lp2062
g56
(g57
g58
NtRp2063
(dp2064
g61
(dp2065
g69
I3
ssg70
g2059
sg63
(lp2066
g1038
asbasbasbag56
(g72
g58
NtRp2067
(dp2068
g61
(dp2069
sg70
g1664
sg63
(lp2070
g56
(g77
g58
NtRp2071
(dp2072
g61
(dp2073
g81
g82
ssg70
g2067
sg63
(lp2074
S'SERVER_SOFTWARE'
p2075
asbag56
(g77
g58
NtRp2076
(dp2077
g61
(dp2078
g88
g89
ssg70
g2067
sg63
(lp2079
S':'
asbag56
(g77
g58
NtRp2080
(dp2081
g61
(dp2082
sg70
g2067
sg63
(lp2083
g56
(g57
g58
NtRp2084
(dp2085
g61
(dp2086
g69
I3
ssg70
g2080
sg63
(lp2087
g1060
asbasbasbag56
(g72
g58
NtRp2088
(dp2089
g61
(dp2090
sg70
g1664
sg63
(lp2091
g56
(g77
g58
NtRp2092
(dp2093
g61
(dp2094
g81
g82
ssg70
g2088
sg63
(lp2095
S'wsgi.errors'
p2096
asbag56
(g77
g58
NtRp2097
(dp2098
g61
(dp2099
g88
g89
ssg70
g2088
sg63
(lp2100
S':'
asbag56
(g77
g58
NtRp2101
(dp2102
g61
(dp2103
sg70
g2088
sg63
(lp2104
g56
(g57
g58
NtRp2105
(dp2106
g61
(dp2107
g69
I3
ssg70
g2101
sg63
(lp2108
S"<open file '<stderr>', mode 'w' at 0x7f76298491e0>"
p2109
asbasbasbag56
(g72
g58
NtRp2110
(dp2111
g61
(dp2112
sg70
g1664
sg63
(lp2113
g56
(g77
g58
NtRp2114
(dp2115
g61
(dp2116
g81
g82
ssg70
g2110
sg63
(lp2117
S'wsgi.file_wrapper'
p2118
asbag56
(g77
g58
NtRp2119
(dp2120
g61
(dp2121
g88
g89
ssg70
g2110
sg63
(lp2122
S':'
asbag56
(g77
g58
NtRp2123
(dp2124
g61
(dp2125
sg70
g2110
sg63
(lp2126
g56
(g57
g58
NtRp2127
(dp2128
g61
(dp2129
g69
I3
ssg70
g2123
sg63
(lp2130
S'<class gluon.rocket.FileWrapper at 0x2703fb0>'
p2131
asbasbasbag56
(g72
g58
NtRp2132
(dp2133
g61
(dp2134
sg70
g1664
sg63
(lp2135
g56
(g77
g58
NtRp2136
(dp2137
g61
(dp2138
g81
g82
ssg70
g2132
sg63
(lp2139
S'wsgi.input'
p2140
asbag56
(g77
g58
NtRp2141
(dp2142
g61
(dp2143
g88
g89
ssg70
g2132
sg63
(lp2144
S':'
asbag56
(g77
g58
NtRp2145
(dp2146
g61
(dp2147
sg70
g2132
sg63
(lp2148
g56
(g57
g58
NtRp2149
(dp2150
g61
(dp2151
g69
I3
ssg70
g2145
sg63
(lp2152
S'<cStringIO.StringO object at 0x3baace0>'
p2153
asbasbasbag56
(g72
g58
NtRp2154
(dp2155
g61
(dp2156
sg70
g1664
sg63
(lp2157
g56
(g77
g58
NtRp2158
(dp2159
g61
(dp2160
g81
g82
ssg70
g2154
sg63
(lp2161
S'wsgi.multiprocess'
p2162
asbag56
(g77
g58
NtRp2163
(dp2164
g61
(dp2165
g88
g89
ssg70
g2154
sg63
(lp2166
S':'
asbag56
(g77
g58
NtRp2167
(dp2168
g61
(dp2169
sg70
g2154
sg63
(lp2170
g56
(g57
g58
NtRp2171
(dp2172
g61
(dp2173
g69
I3
ssg70
g2167
sg63
(lp2174
g99
asbasbasbag56
(g72
g58
NtRp2175
(dp2176
g61
(dp2177
sg70
g1664
sg63
(lp2178
g56
(g77
g58
NtRp2179
(dp2180
g61
(dp2181
g81
g82
ssg70
g2175
sg63
(lp2182
S'wsgi.multithread'
p2183
asbag56
(g77
g58
NtRp2184
(dp2185
g61
(dp2186
g88
g89
ssg70
g2175
sg63
(lp2187
S':'
asbag56
(g77
g58
NtRp2188
(dp2189
g61
(dp2190
sg70
g2175
sg63
(lp2191
g56
(g57
g58
NtRp2192
(dp2193
g61
(dp2194
g69
I3
ssg70
g2188
sg63
(lp2195
g1234
asbasbasbag56
(g72
g58
NtRp2196
(dp2197
g61
(dp2198
sg70
g1664
sg63
(lp2199
g56
(g77
g58
NtRp2200
(dp2201
g61
(dp2202
g81
g82
ssg70
g2196
sg63
(lp2203
S'wsgi.run_once'
p2204
asbag56
(g77
g58
NtRp2205
(dp2206
g61
(dp2207
g88
g89
ssg70
g2196
sg63
(lp2208
S':'
asbag56
(g77
g58
NtRp2209
(dp2210
g61
(dp2211
sg70
g2196
sg63
(lp2212
g56
(g57
g58
NtRp2213
(dp2214
g61
(dp2215
g69
I3
ssg70
g2209
sg63
(lp2216
g99
asbasbasbag56
(g72
g58
NtRp2217
(dp2218
g61
(dp2219
sg70
g1664
sg63
(lp2220
g56
(g77
g58
NtRp2221
(dp2222
g61
(dp2223
g81
g82
ssg70
g2217
sg63
(lp2224
S'wsgi.url_scheme'
p2225
asbag56
(g77
g58
NtRp2226
(dp2227
g61
(dp2228
g88
g89
ssg70
g2217
sg63
(lp2229
S':'
asbag56
(g77
g58
NtRp2230
(dp2231
g61
(dp2232
sg70
g2217
sg63
(lp2233
g56
(g57
g58
NtRp2234
(dp2235
g61
(dp2236
g69
I3
ssg70
g2230
sg63
(lp2237
g1277
asbasbasbag56
(g72
g58
NtRp2238
(dp2239
g61
(dp2240
sg70
g1664
sg63
(lp2241
g56
(g77
g58
NtRp2242
(dp2243
g61
(dp2244
g81
g82
ssg70
g2238
sg63
(lp2245
S'wsgi.version'
p2246
asbag56
(g77
g58
NtRp2247
(dp2248
g61
(dp2249
g88
g89
ssg70
g2238
sg63
(lp2250
S':'
asbag56
(g77
g58
NtRp2251
(dp2252
g61
(dp2253
sg70
g2238
sg63
(lp2254
g56
(g57
g58
NtRp2255
(dp2256
g61
(dp2257
g69
I3
ssg70
g2251
sg63
(lp2258
S'1'
asbasbasbasbasbasbasbasbasbasbasbasbasbsS'frames'
p2259
(lp2260
(dp2261
S'file'
p2262
S'/home/diazluis2007/web2py/gluon/restricted.py'
p2263
sS'dump'
p2264
(dp2265
S'environment'
p2266
S"{'A': <class 'gluon.html.A'>, 'Auth': <class 'gluon.tools.Auth'>, 'B': <class 'gluon.html.B'>, 'BEAUTIFY': <class 'gluon.html.BEAUTIFY'>, 'BODY': <class 'gluon.html.BODY'>, 'BR': <class 'gluon.html.BR'>, 'BUTTON': <class 'gluon.html.BUTTON'>, 'CENTER': <class 'gluon.html.CENTER'>, 'CLEANUP': <class 'gluon.validators.CLEANUP'>, 'CODE': <class 'gluon.html.CODE'>, ...}"
p2267
sS'ccode'
p2268
S'<code object <module> at 0x3a105d0, file "/home/...plications/scec/views/default/user.html", line 1>'
p2269
ssS'lnum'
p2270
I192
sS'lines'
p2271
(dp2272
I192
S'        exec ccode in environment'
p2273
sI193
S'    except HTTP:'
p2274
sI194
S'        raise'
p2275
sI195
S'    except Exception:'
p2276
sI196
S'        # XXX Show exception in Wing IDE if running in debugger'
p2277
sI187
S'    try:'
p2278
sI188
S'        if type(code) == types.CodeType:'
p2279
sI189
S'            ccode = code'
p2280
sI190
S'        else:'
p2281
sI191
S'            ccode = compile2(code,layer)'
p2282
ssS'call'
p2283
S'(code=\'response.write(\\\'<!DOCTYPE html>\\\\n<html lang="\\\', ...ript>\\\\n    \\\\n  </body>\\\\n</html>\\\\n\\\', escape=False)\', environment={\'A\': <class \'gluon.html.A\'>, \'Auth\': <class \'gluon.tools.Auth\'>, \'B\': <class \'gluon.html.B\'>, \'BEAUTIFY\': <class \'gluon.html.BEAUTIFY\'>, \'BODY\': <class \'gluon.html.BODY\'>, \'BR\': <class \'gluon.html.BR\'>, \'BUTTON\': <class \'gluon.html.BUTTON\'>, \'CENTER\': <class \'gluon.html.CENTER\'>, \'CLEANUP\': <class \'gluon.validators.CLEANUP\'>, \'CODE\': <class \'gluon.html.CODE\'>, ...}, layer=\'/home/diazluis2007/web2py/applications/scec/views/default/user.html\')'
p2284
sS'func'
p2285
S'restricted'
p2286
sa(dp2287
g2262
S'/home/diazluis2007/web2py/applications/scec/views/default/user.html'
p2288
sg2264
(dp2289
sg2270
I83
sg2271
(dp2290
I74
S"response.write(' <!-- this is default statusbar -->\\n\\t  ', escape=False)"
p2291
sI75
S'#------ superfish menu ------'
p2292
sI76
S"response.write('\\n\\t  ', escape=False)"
p2293
sI77
S"response.write(MENU(response.menu,_class='sf-menu'))"
p2294
sI78
S'response.write(\'\\n\\t  <script type="text/javascript">\\n\\t    jQuery(document).ready(function(){\\n\\t    jQuery(\\\'ul.sf-menu\\\').superfish();});\\n\\t  </script>\\n\\t  <div style="clear: both;"></div><!-- Clear the divs -->\\t\\n\\t  \', escape=False)'
p2295
sI79
S'response.write(\'\\t\\t\\t\\t\\n\\t</div><!-- statusbar -->\\n\\t\\n\\t<div id="page"> <!-- Here my central body -->\\t  \\n\\n\\n\\t  <!-- content -->\\n\\t  <div id="content" >\\n\\t    \', escape=False)'
p2296
sI80
S"response.write('\\n\\n\\n\\n<table>\\n    <tr>\\n        <td>\\n            ', escape=False)"
p2297
sI81
S'response.write(form)'
p2298
sI82
S"response.write('\\n            <br/>\\n        </td>\\n    ', escape=False)"
p2299
sI83
S'if form_perfil:'
p2300
sI84
S"    response.write('\\n        <td>\\n                ', escape=False)"
p2301
sI85
S'    response.write(form_perfil)'
p2302
sI86
S"    response.write('\\n        </td>\\n     ', escape=False)"
p2303
sI87
S'    pass'
p2304
sI88
S"response.write('\\n    </tr>\\n\\n</table>\\n\\n\\n\\n\\n', escape=False)"
p2305
sI89
S"if request.args(0)=='login':"
p2306
sI90
S"    response.write('\\n', escape=False)"
p2307
sI91
S"    if not 'register' in auth.settings.actions_disabled:"
p2308
sI92
S'        response.write(\'\\n<br/><a href="\', escape=False)'
p2309
sI93
S"        response.write(URL(r=request,args='register'))"
p2310
ssg2283
S'()'
p2311
sg2285
S'<module>'
p2312
sasS'pyver'
p2313
S'Python 2.6.6: /usr/bin/python'
p2314
sS'session'
p2315
g56
(g57
g58
NtRp2316
(dp2317
g61
(dp2318
sg63
(lp2319
g56
(g65
g58
NtRp2320
(dp2321
g61
(dp2322
g69
I5
ssg70
Nsg63
(lp2323
sbasbsS'etype'
p2324
S"<type 'exceptions.NameError'>"
p2325
sS'date'
p2326
S'Sun Jul 31 22:05:43 2011'
p2327
sS'response'
p2328
g56
(g57
g58
NtRp2329
(dp2330
g61
(dp2331
sg63
(lp2332
g56
(g65
g58
NtRp2333
(dp2334
g61
(dp2335
g69
I5
ssg70
Nsg63
(lp2336
g56
(g72
g58
NtRp2337
(dp2338
g61
(dp2339
sg70
g2333
sg63
(lp2340
g56
(g77
g58
NtRp2341
(dp2342
g61
(dp2343
g81
g82
ssg70
g2337
sg63
(lp2344
g167
asbag56
(g77
g58
NtRp2345
(dp2346
g61
(dp2347
g88
g89
ssg70
g2337
sg63
(lp2348
S':'
asbag56
(g77
g58
NtRp2349
(dp2350
g61
(dp2351
sg70
g2337
sg63
(lp2352
g56
(g57
g58
NtRp2353
(dp2354
g61
(dp2355
g69
I5
ssg70
g2349
sg63
(lp2356
S'<cStringIO.StringO object at 0x4421dc0>'
p2357
asbasbasbag56
(g72
g58
NtRp2358
(dp2359
g61
(dp2360
sg70
g2333
sg63
(lp2361
g56
(g77
g58
NtRp2362
(dp2363
g61
(dp2364
g81
g82
ssg70
g2358
sg63
(lp2365
g233
asbag56
(g77
g58
NtRp2366
(dp2367
g61
(dp2368
g88
g89
ssg70
g2358
sg63
(lp2369
S':'
asbag56
(g77
g58
NtRp2370
(dp2371
g61
(dp2372
sg70
g2358
sg63
(lp2373
g56
(g57
g58
NtRp2374
(dp2375
g61
(dp2376
g69
I5
ssg70
g2370
sg63
(lp2377
g56
(g65
g58
NtRp2378
(dp2379
g61
(dp2380
g69
I4
ssg70
Nsg63
(lp2381
g56
(g72
g58
NtRp2382
(dp2383
g61
(dp2384
sg70
g2378
sg63
(lp2385
g56
(g77
g58
NtRp2386
(dp2387
g61
(dp2388
g81
g82
ssg70
g2382
sg63
(lp2389
S'session_id_scec'
p2390
asbag56
(g77
g58
NtRp2391
(dp2392
g61
(dp2393
g88
g89
ssg70
g2382
sg63
(lp2394
S':'
asbag56
(g77
g58
NtRp2395
(dp2396
g61
(dp2397
sg70
g2382
sg63
(lp2398
g56
(g57
g58
NtRp2399
(dp2400
g61
(dp2401
g69
I4
ssg70
g2395
sg63
(lp2402
g56
(g65
g58
NtRp2403
(dp2404
g61
(dp2405
g69
I3
ssg70
Nsg63
(lp2406
g56
(g72
g58
NtRp2407
(dp2408
g61
(dp2409
sg70
g2403
sg63
(lp2410
g56
(g77
g58
NtRp2411
(dp2412
g61
(dp2413
g81
g82
ssg70
g2407
sg63
(lp2414
g283
asbag56
(g77
g58
NtRp2415
(dp2416
g61
(dp2417
g88
g89
ssg70
g2407
sg63
(lp2418
S':'
asbag56
(g77
g58
NtRp2419
(dp2420
g61
(dp2421
sg70
g2407
sg63
(lp2422
g56
(g57
g58
NtRp2423
(dp2424
g61
(dp2425
g69
I3
ssg70
g2419
sg63
(lp2426
S''
asbasbasbag56
(g72
g58
NtRp2427
(dp2428
g61
(dp2429
sg70
g2403
sg63
(lp2430
g56
(g77
g58
NtRp2431
(dp2432
g61
(dp2433
g81
g82
ssg70
g2427
sg63
(lp2434
g304
asbag56
(g77
g58
NtRp2435
(dp2436
g61
(dp2437
g88
g89
ssg70
g2427
sg63
(lp2438
S':'
asbag56
(g77
g58
NtRp2439
(dp2440
g61
(dp2441
sg70
g2427
sg63
(lp2442
g56
(g57
g58
NtRp2443
(dp2444
g61
(dp2445
g69
I3
ssg70
g2439
sg63
(lp2446
S''
asbasbasbag56
(g72
g58
NtRp2447
(dp2448
g61
(dp2449
sg70
g2403
sg63
(lp2450
g56
(g77
g58
NtRp2451
(dp2452
g61
(dp2453
g81
g82
ssg70
g2447
sg63
(lp2454
g325
asbag56
(g77
g58
NtRp2455
(dp2456
g61
(dp2457
g88
g89
ssg70
g2447
sg63
(lp2458
S':'
asbag56
(g77
g58
NtRp2459
(dp2460
g61
(dp2461
sg70
g2447
sg63
(lp2462
g56
(g57
g58
NtRp2463
(dp2464
g61
(dp2465
g69
I3
ssg70
g2459
sg63
(lp2466
S''
asbasbasbag56
(g72
g58
NtRp2467
(dp2468
g61
(dp2469
sg70
g2403
sg63
(lp2470
g56
(g77
g58
NtRp2471
(dp2472
g61
(dp2473
g81
g82
ssg70
g2467
sg63
(lp2474
g346
asbag56
(g77
g58
NtRp2475
(dp2476
g61
(dp2477
g88
g89
ssg70
g2467
sg63
(lp2478
S':'
asbag56
(g77
g58
NtRp2479
(dp2480
g61
(dp2481
sg70
g2467
sg63
(lp2482
g56
(g57
g58
NtRp2483
(dp2484
g61
(dp2485
g69
I3
ssg70
g2479
sg63
(lp2486
S''
asbasbasbag56
(g72
g58
NtRp2487
(dp2488
g61
(dp2489
sg70
g2403
sg63
(lp2490
g56
(g77
g58
NtRp2491
(dp2492
g61
(dp2493
g81
g82
ssg70
g2487
sg63
(lp2494
g367
asbag56
(g77
g58
NtRp2495
(dp2496
g61
(dp2497
g88
g89
ssg70
g2487
sg63
(lp2498
S':'
asbag56
(g77
g58
NtRp2499
(dp2500
g61
(dp2501
sg70
g2487
sg63
(lp2502
g56
(g57
g58
NtRp2503
(dp2504
g61
(dp2505
g69
I3
ssg70
g2499
sg63
(lp2506
S''
asbasbasbag56
(g72
g58
NtRp2507
(dp2508
g61
(dp2509
sg70
g2403
sg63
(lp2510
g56
(g77
g58
NtRp2511
(dp2512
g61
(dp2513
g81
g82
ssg70
g2507
sg63
(lp2514
g388
asbag56
(g77
g58
NtRp2515
(dp2516
g61
(dp2517
g88
g89
ssg70
g2507
sg63
(lp2518
S':'
asbag56
(g77
g58
NtRp2519
(dp2520
g61
(dp2521
sg70
g2507
sg63
(lp2522
g56
(g57
g58
NtRp2523
(dp2524
g61
(dp2525
g69
I3
ssg70
g2519
sg63
(lp2526
S'/'
asbasbasbag56
(g72
g58
NtRp2527
(dp2528
g61
(dp2529
sg70
g2403
sg63
(lp2530
g56
(g77
g58
NtRp2531
(dp2532
g61
(dp2533
g81
g82
ssg70
g2527
sg63
(lp2534
g409
asbag56
(g77
g58
NtRp2535
(dp2536
g61
(dp2537
g88
g89
ssg70
g2527
sg63
(lp2538
S':'
asbag56
(g77
g58
NtRp2539
(dp2540
g61
(dp2541
sg70
g2527
sg63
(lp2542
g56
(g57
g58
NtRp2543
(dp2544
g61
(dp2545
g69
I3
ssg70
g2539
sg63
(lp2546
S''
asbasbasbag56
(g72
g58
NtRp2547
(dp2548
g61
(dp2549
sg70
g2403
sg63
(lp2550
g56
(g77
g58
NtRp2551
(dp2552
g61
(dp2553
g81
g82
ssg70
g2547
sg63
(lp2554
g430
asbag56
(g77
g58
NtRp2555
(dp2556
g61
(dp2557
g88
g89
ssg70
g2547
sg63
(lp2558
S':'
asbag56
(g77
g58
NtRp2559
(dp2560
g61
(dp2561
sg70
g2547
sg63
(lp2562
g56
(g57
g58
NtRp2563
(dp2564
g61
(dp2565
g69
I3
ssg70
g2559
sg63
(lp2566
S''
asbasbasbasbasbasbasbasbasbasbasbag56
(g72
g58
NtRp2567
(dp2568
g61
(dp2569
sg70
g2333
sg63
(lp2570
g56
(g77
g58
NtRp2571
(dp2572
g61
(dp2573
g81
g82
ssg70
g2567
sg63
(lp2574
S'files'
p2575
asbag56
(g77
g58
NtRp2576
(dp2577
g61
(dp2578
g88
g89
ssg70
g2567
sg63
(lp2579
S':'
asbag56
(g77
g58
NtRp2580
(dp2581
g61
(dp2582
sg70
g2567
sg63
(lp2583
g56
(g57
g58
NtRp2584
(dp2585
g61
(dp2586
g69
I5
ssg70
g2580
sg63
(lp2587
g56
(g65
g58
NtRp2588
(dp2589
g61
(dp2590
g69
I4
ssg70
Nsg63
(lp2591
g56
(g72
g58
NtRp2592
(dp2593
g61
(dp2594
sg70
g2588
sg63
(lp2595
g56
(g77
g58
NtRp2596
(dp2597
g61
(dp2598
sg70
g2592
sg63
(lp2599
g56
(g57
g58
NtRp2600
(dp2601
g61
(dp2602
g69
I4
ssg70
g2596
sg63
(lp2603
S'/scec/static/js/jquery.js'
p2604
asbasbasbag56
(g72
g58
NtRp2605
(dp2606
g61
(dp2607
sg70
g2588
sg63
(lp2608
g56
(g77
g58
NtRp2609
(dp2610
g61
(dp2611
sg70
g2605
sg63
(lp2612
g56
(g57
g58
NtRp2613
(dp2614
g61
(dp2615
g69
I4
ssg70
g2609
sg63
(lp2616
S'/scec/static/css/calendar.css'
p2617
asbasbasbag56
(g72
g58
NtRp2618
(dp2619
g61
(dp2620
sg70
g2588
sg63
(lp2621
g56
(g77
g58
NtRp2622
(dp2623
g61
(dp2624
sg70
g2618
sg63
(lp2625
g56
(g57
g58
NtRp2626
(dp2627
g61
(dp2628
g69
I4
ssg70
g2622
sg63
(lp2629
S'/scec/static/js/calendar.js'
p2630
asbasbasbag56
(g72
g58
NtRp2631
(dp2632
g61
(dp2633
sg70
g2588
sg63
(lp2634
g56
(g77
g58
NtRp2635
(dp2636
g61
(dp2637
sg70
g2631
sg63
(lp2638
g56
(g57
g58
NtRp2639
(dp2640
g61
(dp2641
g69
I4
ssg70
g2635
sg63
(lp2642
S'/scec/static/css/base.css'
p2643
asbasbasbag56
(g72
g58
NtRp2644
(dp2645
g61
(dp2646
sg70
g2588
sg63
(lp2647
g56
(g77
g58
NtRp2648
(dp2649
g61
(dp2650
sg70
g2644
sg63
(lp2651
g56
(g57
g58
NtRp2652
(dp2653
g61
(dp2654
g69
I4
ssg70
g2648
sg63
(lp2655
S'/scec/static/css/superfish.css'
p2656
asbasbasbag56
(g72
g58
NtRp2657
(dp2658
g61
(dp2659
sg70
g2588
sg63
(lp2660
g56
(g77
g58
NtRp2661
(dp2662
g61
(dp2663
sg70
g2657
sg63
(lp2664
g56
(g57
g58
NtRp2665
(dp2666
g61
(dp2667
g69
I4
ssg70
g2661
sg63
(lp2668
S'/scec/static/js/superfish.js'
p2669
asbasbasbag56
(g72
g58
NtRp2670
(dp2671
g61
(dp2672
sg70
g2588
sg63
(lp2673
g56
(g77
g58
NtRp2674
(dp2675
g61
(dp2676
sg70
g2670
sg63
(lp2677
g56
(g57
g58
NtRp2678
(dp2679
g61
(dp2680
g69
I4
ssg70
g2674
sg63
(lp2681
S'/scec/static/js/jquery.tooltip.min.js'
p2682
asbasbasbag56
(g72
g58
NtRp2683
(dp2684
g61
(dp2685
sg70
g2588
sg63
(lp2686
g56
(g77
g58
NtRp2687
(dp2688
g61
(dp2689
sg70
g2683
sg63
(lp2690
g56
(g57
g58
NtRp2691
(dp2692
g61
(dp2693
g69
I4
ssg70
g2687
sg63
(lp2694
S'/scec/static/css/jquery.tooltip.css'
p2695
asbasbasbasbasbasbasbag56
(g72
g58
NtRp2696
(dp2697
g61
(dp2698
sg70
g2333
sg63
(lp2699
g56
(g77
g58
NtRp2700
(dp2701
g61
(dp2702
g81
g82
ssg70
g2696
sg63
(lp2703
S'flash'
p2704
asbag56
(g77
g58
NtRp2705
(dp2706
g61
(dp2707
g88
g89
ssg70
g2696
sg63
(lp2708
S':'
asbag56
(g77
g58
NtRp2709
(dp2710
g61
(dp2711
sg70
g2696
sg63
(lp2712
g56
(g57
g58
NtRp2713
(dp2714
g61
(dp2715
g69
I5
ssg70
g2709
sg63
(lp2716
S''
asbasbasbag56
(g72
g58
NtRp2717
(dp2718
g61
(dp2719
sg70
g2333
sg63
(lp2720
g56
(g77
g58
NtRp2721
(dp2722
g61
(dp2723
g81
g82
ssg70
g2717
sg63
(lp2724
S'generic_patterns'
p2725
asbag56
(g77
g58
NtRp2726
(dp2727
g61
(dp2728
g88
g89
ssg70
g2717
sg63
(lp2729
S':'
asbag56
(g77
g58
NtRp2730
(dp2731
g61
(dp2732
sg70
g2717
sg63
(lp2733
g56
(g57
g58
NtRp2734
(dp2735
g61
(dp2736
g69
I5
ssg70
g2730
sg63
(lp2737
g56
(g65
g58
NtRp2738
(dp2739
g61
(dp2740
g69
I4
ssg70
Nsg63
(lp2741
g56
(g72
g58
NtRp2742
(dp2743
g61
(dp2744
sg70
g2738
sg63
(lp2745
g56
(g77
g58
NtRp2746
(dp2747
g61
(dp2748
sg70
g2742
sg63
(lp2749
g56
(g57
g58
NtRp2750
(dp2751
g61
(dp2752
g69
I4
ssg70
g2746
sg63
(lp2753
S'*'
asbasbasbasbasbasbasbag56
(g72
g58
NtRp2754
(dp2755
g61
(dp2756
sg70
g2333
sg63
(lp2757
g56
(g77
g58
NtRp2758
(dp2759
g61
(dp2760
g81
g82
ssg70
g2754
sg63
(lp2761
S'headers'
p2762
asbag56
(g77
g58
NtRp2763
(dp2764
g61
(dp2765
g88
g89
ssg70
g2754
sg63
(lp2766
S':'
asbag56
(g77
g58
NtRp2767
(dp2768
g61
(dp2769
sg70
g2754
sg63
(lp2770
g56
(g57
g58
NtRp2771
(dp2772
g61
(dp2773
g69
I5
ssg70
g2767
sg63
(lp2774
g56
(g65
g58
NtRp2775
(dp2776
g61
(dp2777
g69
I4
ssg70
Nsg63
(lp2778
g56
(g72
g58
NtRp2779
(dp2780
g61
(dp2781
sg70
g2775
sg63
(lp2782
g56
(g77
g58
NtRp2783
(dp2784
g61
(dp2785
g81
g82
ssg70
g2779
sg63
(lp2786
S'Cache-Control'
p2787
asbag56
(g77
g58
NtRp2788
(dp2789
g61
(dp2790
g88
g89
ssg70
g2779
sg63
(lp2791
S':'
asbag56
(g77
g58
NtRp2792
(dp2793
g61
(dp2794
sg70
g2779
sg63
(lp2795
g56
(g57
g58
NtRp2796
(dp2797
g61
(dp2798
g69
I4
ssg70
g2792
sg63
(lp2799
S'no-store, no-cache, must-revalidate, post-check=0, pre-check=0'
p2800
asbasbasbag56
(g72
g58
NtRp2801
(dp2802
g61
(dp2803
sg70
g2775
sg63
(lp2804
g56
(g77
g58
NtRp2805
(dp2806
g61
(dp2807
g81
g82
ssg70
g2801
sg63
(lp2808
S'Content-Type'
p2809
asbag56
(g77
g58
NtRp2810
(dp2811
g61
(dp2812
g88
g89
ssg70
g2801
sg63
(lp2813
S':'
asbag56
(g77
g58
NtRp2814
(dp2815
g61
(dp2816
sg70
g2801
sg63
(lp2817
g56
(g57
g58
NtRp2818
(dp2819
g61
(dp2820
g69
I4
ssg70
g2814
sg63
(lp2821
S'text/html; charset=utf-8'
p2822
asbasbasbag56
(g72
g58
NtRp2823
(dp2824
g61
(dp2825
sg70
g2775
sg63
(lp2826
g56
(g77
g58
NtRp2827
(dp2828
g61
(dp2829
g81
g82
ssg70
g2823
sg63
(lp2830
S'Expires'
p2831
asbag56
(g77
g58
NtRp2832
(dp2833
g61
(dp2834
g88
g89
ssg70
g2823
sg63
(lp2835
S':'
asbag56
(g77
g58
NtRp2836
(dp2837
g61
(dp2838
sg70
g2823
sg63
(lp2839
g56
(g57
g58
NtRp2840
(dp2841
g61
(dp2842
g69
I4
ssg70
g2836
sg63
(lp2843
S'Mon, 01 Aug 2011 02:35:43 GMT'
p2844
asbasbasbag56
(g72
g58
NtRp2845
(dp2846
g61
(dp2847
sg70
g2775
sg63
(lp2848
g56
(g77
g58
NtRp2849
(dp2850
g61
(dp2851
g81
g82
ssg70
g2845
sg63
(lp2852
S'Pragma'
p2853
asbag56
(g77
g58
NtRp2854
(dp2855
g61
(dp2856
g88
g89
ssg70
g2845
sg63
(lp2857
S':'
asbag56
(g77
g58
NtRp2858
(dp2859
g61
(dp2860
sg70
g2845
sg63
(lp2861
g56
(g57
g58
NtRp2862
(dp2863
g61
(dp2864
g69
I4
ssg70
g2858
sg63
(lp2865
S'no-cache'
p2866
asbasbasbag56
(g72
g58
NtRp2867
(dp2868
g61
(dp2869
sg70
g2775
sg63
(lp2870
g56
(g77
g58
NtRp2871
(dp2872
g61
(dp2873
g81
g82
ssg70
g2867
sg63
(lp2874
S'X-Powered-By'
p2875
asbag56
(g77
g58
NtRp2876
(dp2877
g61
(dp2878
g88
g89
ssg70
g2867
sg63
(lp2879
S':'
asbag56
(g77
g58
NtRp2880
(dp2881
g61
(dp2882
sg70
g2867
sg63
(lp2883
g56
(g57
g58
NtRp2884
(dp2885
g61
(dp2886
g69
I4
ssg70
g2880
sg63
(lp2887
S'web2py'
p2888
asbasbasbasbasbasbasbag56
(g72
g58
NtRp2889
(dp2890
g61
(dp2891
sg70
g2333
sg63
(lp2892
g56
(g77
g58
NtRp2893
(dp2894
g61
(dp2895
g81
g82
ssg70
g2889
sg63
(lp2896
S'menu'
p2897
asbag56
(g77
g58
NtRp2898
(dp2899
g61
(dp2900
g88
g89
ssg70
g2889
sg63
(lp2901
S':'
asbag56
(g77
g58
NtRp2902
(dp2903
g61
(dp2904
sg70
g2889
sg63
(lp2905
g56
(g57
g58
NtRp2906
(dp2907
g61
(dp2908
g69
I5
ssg70
g2902
sg63
(lp2909
g56
(g65
g58
NtRp2910
(dp2911
g61
(dp2912
g69
I4
ssg70
Nsg63
(lp2913
g56
(g72
g58
NtRp2914
(dp2915
g61
(dp2916
sg70
g2910
sg63
(lp2917
g56
(g77
g58
NtRp2918
(dp2919
g61
(dp2920
sg70
g2914
sg63
(lp2921
g56
(g57
g58
NtRp2922
(dp2923
g61
(dp2924
g69
I4
ssg70
g2918
sg63
(lp2925
g56
(g65
g58
NtRp2926
(dp2927
g61
(dp2928
g69
I3
ssg70
Nsg63
(lp2929
g56
(g72
g58
NtRp2930
(dp2931
g61
(dp2932
sg70
g2926
sg63
(lp2933
g56
(g77
g58
NtRp2934
(dp2935
g61
(dp2936
sg70
g2930
sg63
(lp2937
g56
(g57
g58
NtRp2938
(dp2939
g61
(dp2940
g69
I3
ssg70
g2934
sg63
(lp2941
S'Home/Noticias'
p2942
asbasbasbag56
(g72
g58
NtRp2943
(dp2944
g61
(dp2945
sg70
g2926
sg63
(lp2946
g56
(g77
g58
NtRp2947
(dp2948
g61
(dp2949
sg70
g2943
sg63
(lp2950
g56
(g57
g58
NtRp2951
(dp2952
g61
(dp2953
g69
I3
ssg70
g2947
sg63
(lp2954
g99
asbasbasbag56
(g72
g58
NtRp2955
(dp2956
g61
(dp2957
sg70
g2926
sg63
(lp2958
g56
(g77
g58
NtRp2959
(dp2960
g61
(dp2961
sg70
g2955
sg63
(lp2962
g56
(g57
g58
NtRp2963
(dp2964
g61
(dp2965
g69
I3
ssg70
g2959
sg63
(lp2966
S'/scec/default/index'
p2967
asbasbasbag56
(g72
g58
NtRp2968
(dp2969
g61
(dp2970
sg70
g2926
sg63
(lp2971
g56
(g77
g58
NtRp2972
(dp2973
g61
(dp2974
sg70
g2968
sg63
(lp2975
g56
(g57
g58
NtRp2976
(dp2977
g61
(dp2978
g69
I3
ssg70
g2972
sg63
(lp2979
g56
(g65
g58
NtRp2980
(dp2981
g61
(dp2982
g69
I2
ssg70
Nsg63
(lp2983
sbasbasbasbasbasbasbasbag56
(g72
g58
NtRp2984
(dp2985
g61
(dp2986
sg70
g2910
sg63
(lp2987
g56
(g77
g58
NtRp2988
(dp2989
g61
(dp2990
sg70
g2984
sg63
(lp2991
g56
(g57
g58
NtRp2992
(dp2993
g61
(dp2994
g69
I4
ssg70
g2988
sg63
(lp2995
g56
(g65
g58
NtRp2996
(dp2997
g61
(dp2998
g69
I3
ssg70
Nsg63
(lp2999
g56
(g72
g58
NtRp3000
(dp3001
g61
(dp3002
sg70
g2996
sg63
(lp3003
g56
(g77
g58
NtRp3004
(dp3005
g61
(dp3006
sg70
g3000
sg63
(lp3007
g56
(g57
g58
NtRp3008
(dp3009
g61
(dp3010
g69
I3
ssg70
g3004
sg63
(lp3011
S'Personal'
p3012
asbasbasbag56
(g72
g58
NtRp3013
(dp3014
g61
(dp3015
sg70
g2996
sg63
(lp3016
g56
(g77
g58
NtRp3017
(dp3018
g61
(dp3019
sg70
g3013
sg63
(lp3020
g56
(g57
g58
NtRp3021
(dp3022
g61
(dp3023
g69
I3
ssg70
g3017
sg63
(lp3024
g99
asbasbasbag56
(g72
g58
NtRp3025
(dp3026
g61
(dp3027
sg70
g2996
sg63
(lp3028
g56
(g77
g58
NtRp3029
(dp3030
g61
(dp3031
sg70
g3025
sg63
(lp3032
g56
(g57
g58
NtRp3033
(dp3034
g61
(dp3035
g69
I3
ssg70
g3029
sg63
(lp3036
S'#'
asbasbasbag56
(g72
g58
NtRp3037
(dp3038
g61
(dp3039
sg70
g2996
sg63
(lp3040
g56
(g77
g58
NtRp3041
(dp3042
g61
(dp3043
sg70
g3037
sg63
(lp3044
g56
(g57
g58
NtRp3045
(dp3046
g61
(dp3047
g69
I3
ssg70
g3041
sg63
(lp3048
g56
(g65
g58
NtRp3049
(dp3050
g61
(dp3051
g69
I2
ssg70
Nsg63
(lp3052
g56
(g72
g58
NtRp3053
(dp3054
g61
(dp3055
sg70
g3049
sg63
(lp3056
g56
(g77
g58
NtRp3057
(dp3058
g61
(dp3059
sg70
g3053
sg63
(lp3060
g56
(g57
g58
NtRp3061
(dp3062
g61
(dp3063
g69
I2
ssg70
g3057
sg63
(lp3064
g56
(g65
g58
NtRp3065
(dp3066
g61
(dp3067
g69
I1
ssg70
Nsg63
(lp3068
g56
(g72
g58
NtRp3069
(dp3070
g61
(dp3071
sg70
g3065
sg63
(lp3072
g56
(g77
g58
NtRp3073
(dp3074
g61
(dp3075
sg70
g3069
sg63
(lp3076
g56
(g57
g58
NtRp3077
(dp3078
g61
(dp3079
g69
I1
ssg70
g3073
sg63
(lp3080
S'Perfil'
p3081
asbasbasbag56
(g72
g58
NtRp3082
(dp3083
g61
(dp3084
sg70
g3065
sg63
(lp3085
g56
(g77
g58
NtRp3086
(dp3087
g61
(dp3088
sg70
g3082
sg63
(lp3089
g56
(g57
g58
NtRp3090
(dp3091
g61
(dp3092
g69
I1
ssg70
g3086
sg63
(lp3093
I00
asbasbasbag56
(g72
g58
NtRp3094
(dp3095
g61
(dp3096
sg70
g3065
sg63
(lp3097
g56
(g77
g58
NtRp3098
(dp3099
g61
(dp3100
sg70
g3094
sg63
(lp3101
g56
(g57
g58
NtRp3102
(dp3103
g61
(dp3104
g69
I1
ssg70
g3098
sg63
(lp3105
S'/scec/default/index'
p3106
asbasbasbag56
(g72
g58
NtRp3107
(dp3108
g61
(dp3109
sg70
g3065
sg63
(lp3110
g56
(g77
g58
NtRp3111
(dp3112
g61
(dp3113
sg70
g3107
sg63
(lp3114
g56
(g57
g58
NtRp3115
(dp3116
g61
(dp3117
g69
I1
ssg70
g3111
sg63
(lp3118
(lp3119
(S'Datos Basicos'
I00
S'/scec/default/index'
(ltp3120
a(S'Dato Socio Economico'
I00
S'/scec/default/index'
(ltp3121
aasbasbasbasbasbasbasbasbasbasbasbasbasbasbasbag56
(g72
g58
NtRp3122
(dp3123
g61
(dp3124
sg70
g2910
sg63
(lp3125
g56
(g77
g58
NtRp3126
(dp3127
g61
(dp3128
sg70
g3122
sg63
(lp3129
g56
(g57
g58
NtRp3130
(dp3131
g61
(dp3132
g69
I4
ssg70
g3126
sg63
(lp3133
g56
(g65
g58
NtRp3134
(dp3135
g61
(dp3136
g69
I3
ssg70
Nsg63
(lp3137
g56
(g72
g58
NtRp3138
(dp3139
g61
(dp3140
sg70
g3134
sg63
(lp3141
g56
(g77
g58
NtRp3142
(dp3143
g61
(dp3144
sg70
g3138
sg63
(lp3145
g56
(g57
g58
NtRp3146
(dp3147
g61
(dp3148
g69
I3
ssg70
g3142
sg63
(lp3149
S'Inscripcion'
p3150
asbasbasbag56
(g72
g58
NtRp3151
(dp3152
g61
(dp3153
sg70
g3134
sg63
(lp3154
g56
(g77
g58
NtRp3155
(dp3156
g61
(dp3157
sg70
g3151
sg63
(lp3158
g56
(g57
g58
NtRp3159
(dp3160
g61
(dp3161
g69
I3
ssg70
g3155
sg63
(lp3162
g99
asbasbasbag56
(g72
g58
NtRp3163
(dp3164
g61
(dp3165
sg70
g3134
sg63
(lp3166
g56
(g77
g58
NtRp3167
(dp3168
g61
(dp3169
sg70
g3163
sg63
(lp3170
g56
(g57
g58
NtRp3171
(dp3172
g61
(dp3173
g69
I3
ssg70
g3167
sg63
(lp3174
S'/scec/default/index'
p3175
asbasbasbag56
(g72
g58
NtRp3176
(dp3177
g61
(dp3178
sg70
g3134
sg63
(lp3179
g56
(g77
g58
NtRp3180
(dp3181
g61
(dp3182
sg70
g3176
sg63
(lp3183
g56
(g57
g58
NtRp3184
(dp3185
g61
(dp3186
g69
I3
ssg70
g3180
sg63
(lp3187
g56
(g65
g58
NtRp3188
(dp3189
g61
(dp3190
g69
I2
ssg70
Nsg63
(lp3191
sbasbasbasbasbasbasbasbag56
(g72
g58
NtRp3192
(dp3193
g61
(dp3194
sg70
g2910
sg63
(lp3195
g56
(g77
g58
NtRp3196
(dp3197
g61
(dp3198
sg70
g3192
sg63
(lp3199
g56
(g57
g58
NtRp3200
(dp3201
g61
(dp3202
g69
I4
ssg70
g3196
sg63
(lp3203
g56
(g65
g58
NtRp3204
(dp3205
g61
(dp3206
g69
I3
ssg70
Nsg63
(lp3207
g56
(g72
g58
NtRp3208
(dp3209
g61
(dp3210
sg70
g3204
sg63
(lp3211
g56
(g77
g58
NtRp3212
(dp3213
g61
(dp3214
sg70
g3208
sg63
(lp3215
g56
(g57
g58
NtRp3216
(dp3217
g61
(dp3218
g69
I3
ssg70
g3212
sg63
(lp3219
g3150
asbasbasbag56
(g72
g58
NtRp3220
(dp3221
g61
(dp3222
sg70
g3204
sg63
(lp3223
g56
(g77
g58
NtRp3224
(dp3225
g61
(dp3226
sg70
g3220
sg63
(lp3227
g56
(g57
g58
NtRp3228
(dp3229
g61
(dp3230
g69
I3
ssg70
g3224
sg63
(lp3231
g99
asbasbasbag56
(g72
g58
NtRp3232
(dp3233
g61
(dp3234
sg70
g3204
sg63
(lp3235
g56
(g77
g58
NtRp3236
(dp3237
g61
(dp3238
sg70
g3232
sg63
(lp3239
g56
(g57
g58
NtRp3240
(dp3241
g61
(dp3242
g69
I3
ssg70
g3236
sg63
(lp3243
S'/scec/default/index'
p3244
asbasbasbag56
(g72
g58
NtRp3245
(dp3246
g61
(dp3247
sg70
g3204
sg63
(lp3248
g56
(g77
g58
NtRp3249
(dp3250
g61
(dp3251
sg70
g3245
sg63
(lp3252
g56
(g57
g58
NtRp3253
(dp3254
g61
(dp3255
g69
I3
ssg70
g3249
sg63
(lp3256
g56
(g65
g58
NtRp3257
(dp3258
g61
(dp3259
g69
I2
ssg70
Nsg63
(lp3260
sbasbasbasbasbasbasbasbasbasbasbasbag56
(g72
g58
NtRp3261
(dp3262
g61
(dp3263
sg70
g2333
sg63
(lp3264
g56
(g77
g58
NtRp3265
(dp3266
g61
(dp3267
g81
g82
ssg70
g3261
sg63
(lp3268
S'meta'
p3269
asbag56
(g77
g58
NtRp3270
(dp3271
g61
(dp3272
g88
g89
ssg70
g3261
sg63
(lp3273
S':'
asbag56
(g77
g58
NtRp3274
(dp3275
g61
(dp3276
sg70
g3261
sg63
(lp3277
g56
(g57
g58
NtRp3278
(dp3279
g61
(dp3280
g69
I5
ssg70
g3274
sg63
(lp3281
g56
(g65
g58
NtRp3282
(dp3283
g61
(dp3284
g69
I4
ssg70
Nsg63
(lp3285
g56
(g72
g58
NtRp3286
(dp3287
g61
(dp3288
sg70
g3282
sg63
(lp3289
g56
(g77
g58
NtRp3290
(dp3291
g61
(dp3292
g81
g82
ssg70
g3286
sg63
(lp3293
S'author'
p3294
asbag56
(g77
g58
NtRp3295
(dp3296
g61
(dp3297
g88
g89
ssg70
g3286
sg63
(lp3298
S':'
asbag56
(g77
g58
NtRp3299
(dp3300
g61
(dp3301
sg70
g3286
sg63
(lp3302
g56
(g57
g58
NtRp3303
(dp3304
g61
(dp3305
g69
I4
ssg70
g3299
sg63
(lp3306
S'Luis Diaz'
p3307
asbasbasbag56
(g72
g58
NtRp3308
(dp3309
g61
(dp3310
sg70
g3282
sg63
(lp3311
g56
(g77
g58
NtRp3312
(dp3313
g61
(dp3314
g81
g82
ssg70
g3308
sg63
(lp3315
S'copyright'
p3316
asbag56
(g77
g58
NtRp3317
(dp3318
g61
(dp3319
g88
g89
ssg70
g3308
sg63
(lp3320
S':'
asbag56
(g77
g58
NtRp3321
(dp3322
g61
(dp3323
sg70
g3308
sg63
(lp3324
g56
(g57
g58
NtRp3325
(dp3326
g61
(dp3327
g69
I4
ssg70
g3321
sg63
(lp3328
S''
asbasbasbag56
(g72
g58
NtRp3329
(dp3330
g61
(dp3331
sg70
g3282
sg63
(lp3332
g56
(g77
g58
NtRp3333
(dp3334
g61
(dp3335
g81
g82
ssg70
g3329
sg63
(lp3336
S'description'
p3337
asbag56
(g77
g58
NtRp3338
(dp3339
g61
(dp3340
g88
g89
ssg70
g3329
sg63
(lp3341
S':'
asbag56
(g77
g58
NtRp3342
(dp3343
g61
(dp3344
sg70
g3329
sg63
(lp3345
g56
(g57
g58
NtRp3346
(dp3347
g61
(dp3348
g69
I4
ssg70
g3342
sg63
(lp3349
S''
asbasbasbag56
(g72
g58
NtRp3350
(dp3351
g61
(dp3352
sg70
g3282
sg63
(lp3353
g56
(g77
g58
NtRp3354
(dp3355
g61
(dp3356
g81
g82
ssg70
g3350
sg63
(lp3357
S'generator'
p3358
asbag56
(g77
g58
NtRp3359
(dp3360
g61
(dp3361
g88
g89
ssg70
g3350
sg63
(lp3362
S':'
asbag56
(g77
g58
NtRp3363
(dp3364
g61
(dp3365
sg70
g3350
sg63
(lp3366
g56
(g57
g58
NtRp3367
(dp3368
g61
(dp3369
g69
I4
ssg70
g3363
sg63
(lp3370
S''
asbasbasbag56
(g72
g58
NtRp3371
(dp3372
g61
(dp3373
sg70
g3282
sg63
(lp3374
g56
(g77
g58
NtRp3375
(dp3376
g61
(dp3377
g81
g82
ssg70
g3371
sg63
(lp3378
S'keywords'
p3379
asbag56
(g77
g58
NtRp3380
(dp3381
g61
(dp3382
g88
g89
ssg70
g3371
sg63
(lp3383
S':'
asbag56
(g77
g58
NtRp3384
(dp3385
g61
(dp3386
sg70
g3371
sg63
(lp3387
g56
(g57
g58
NtRp3388
(dp3389
g61
(dp3390
g69
I4
ssg70
g3384
sg63
(lp3391
S''
asbasbasbasbasbasbasbag56
(g72
g58
NtRp3392
(dp3393
g61
(dp3394
sg70
g2333
sg63
(lp3395
g56
(g77
g58
NtRp3396
(dp3397
g61
(dp3398
g81
g82
ssg70
g3392
sg63
(lp3399
S'postprocessing'
p3400
asbag56
(g77
g58
NtRp3401
(dp3402
g61
(dp3403
g88
g89
ssg70
g3392
sg63
(lp3404
S':'
asbag56
(g77
g58
NtRp3405
(dp3406
g61
(dp3407
sg70
g3392
sg63
(lp3408
g56
(g57
g58
NtRp3409
(dp3410
g61
(dp3411
g69
I5
ssg70
g3405
sg63
(lp3412
g56
(g65
g58
NtRp3413
(dp3414
g61
(dp3415
g69
I4
ssg70
Nsg63
(lp3416
sbasbasbasbag56
(g72
g58
NtRp3417
(dp3418
g61
(dp3419
sg70
g2333
sg63
(lp3420
g56
(g77
g58
NtRp3421
(dp3422
g61
(dp3423
g81
g82
ssg70
g3417
sg63
(lp3424
S'session_filename'
p3425
asbag56
(g77
g58
NtRp3426
(dp3427
g61
(dp3428
g88
g89
ssg70
g3417
sg63
(lp3429
S':'
asbag56
(g77
g58
NtRp3430
(dp3431
g61
(dp3432
sg70
g3417
sg63
(lp3433
g56
(g57
g58
NtRp3434
(dp3435
g61
(dp3436
g69
I5
ssg70
g3430
sg63
(lp3437
S'/home/diazluis2007/web2py/applications/scec/sessions/127.0.0.1-02f77af3-ee1b-42d2-823a-c420c07faced'
p3438
asbasbasbag56
(g72
g58
NtRp3439
(dp3440
g61
(dp3441
sg70
g2333
sg63
(lp3442
g56
(g77
g58
NtRp3443
(dp3444
g61
(dp3445
g81
g82
ssg70
g3439
sg63
(lp3446
S'session_id'
p3447
asbag56
(g77
g58
NtRp3448
(dp3449
g61
(dp3450
g88
g89
ssg70
g3439
sg63
(lp3451
S':'
asbag56
(g77
g58
NtRp3452
(dp3453
g61
(dp3454
sg70
g3439
sg63
(lp3455
g56
(g57
g58
NtRp3456
(dp3457
g61
(dp3458
g69
I5
ssg70
g3452
sg63
(lp3459
S'127.0.0.1-02f77af3-ee1b-42d2-823a-c420c07faced'
p3460
asbasbasbag56
(g72
g58
NtRp3461
(dp3462
g61
(dp3463
sg70
g2333
sg63
(lp3464
g56
(g77
g58
NtRp3465
(dp3466
g61
(dp3467
g81
g82
ssg70
g3461
sg63
(lp3468
S'session_id_name'
p3469
asbag56
(g77
g58
NtRp3470
(dp3471
g61
(dp3472
g88
g89
ssg70
g3461
sg63
(lp3473
S':'
asbag56
(g77
g58
NtRp3474
(dp3475
g61
(dp3476
sg70
g3461
sg63
(lp3477
g56
(g57
g58
NtRp3478
(dp3479
g61
(dp3480
g69
I5
ssg70
g3474
sg63
(lp3481
g2390
asbasbasbag56
(g72
g58
NtRp3482
(dp3483
g61
(dp3484
sg70
g2333
sg63
(lp3485
g56
(g77
g58
NtRp3486
(dp3487
g61
(dp3488
g81
g82
ssg70
g3482
sg63
(lp3489
S'session_new'
p3490
asbag56
(g77
g58
NtRp3491
(dp3492
g61
(dp3493
g88
g89
ssg70
g3482
sg63
(lp3494
S':'
asbag56
(g77
g58
NtRp3495
(dp3496
g61
(dp3497
sg70
g3482
sg63
(lp3498
g56
(g57
g58
NtRp3499
(dp3500
g61
(dp3501
g69
I5
ssg70
g3495
sg63
(lp3502
g1234
asbasbasbag56
(g72
g58
NtRp3503
(dp3504
g61
(dp3505
sg70
g2333
sg63
(lp3506
g56
(g77
g58
NtRp3507
(dp3508
g61
(dp3509
g81
g82
ssg70
g3503
sg63
(lp3510
S'status'
p3511
asbag56
(g77
g58
NtRp3512
(dp3513
g61
(dp3514
g88
g89
ssg70
g3503
sg63
(lp3515
S':'
asbag56
(g77
g58
NtRp3516
(dp3517
g61
(dp3518
sg70
g3503
sg63
(lp3519
g56
(g57
g58
NtRp3520
(dp3521
g61
(dp3522
g69
I5
ssg70
g3516
sg63
(lp3523
S'200'
p3524
asbasbasbag56
(g72
g58
NtRp3525
(dp3526
g61
(dp3527
sg70
g2333
sg63
(lp3528
g56
(g77
g58
NtRp3529
(dp3530
g61
(dp3531
g81
g82
ssg70
g3525
sg63
(lp3532
S'subtitle'
p3533
asbag56
(g77
g58
NtRp3534
(dp3535
g61
(dp3536
g88
g89
ssg70
g3525
sg63
(lp3537
S':'
asbag56
(g77
g58
NtRp3538
(dp3539
g61
(dp3540
sg70
g3525
sg63
(lp3541
g56
(g57
g58
NtRp3542
(dp3543
g61
(dp3544
g69
I5
ssg70
g3538
sg63
(lp3545
S'Propotipo'
p3546
asbasbasbag56
(g72
g58
NtRp3547
(dp3548
g61
(dp3549
sg70
g2333
sg63
(lp3550
g56
(g77
g58
NtRp3551
(dp3552
g61
(dp3553
g81
g82
ssg70
g3547
sg63
(lp3554
S'title'
p3555
asbag56
(g77
g58
NtRp3556
(dp3557
g61
(dp3558
g88
g89
ssg70
g3547
sg63
(lp3559
S':'
asbag56
(g77
g58
NtRp3560
(dp3561
g61
(dp3562
sg70
g3547
sg63
(lp3563
g56
(g57
g58
NtRp3564
(dp3565
g61
(dp3566
g69
I5
ssg70
g3560
sg63
(lp3567
S'Sistema de Control de Estudios'
p3568
asbasbasbag56
(g72
g58
NtRp3569
(dp3570
g61
(dp3571
sg70
g2333
sg63
(lp3572
g56
(g77
g58
NtRp3573
(dp3574
g61
(dp3575
g81
g82
ssg70
g3569
sg63
(lp3576
g1579
asbag56
(g77
g58
NtRp3577
(dp3578
g61
(dp3579
g88
g89
ssg70
g3569
sg63
(lp3580
S':'
asbag56
(g77
g58
NtRp3581
(dp3582
g61
(dp3583
sg70
g3569
sg63
(lp3584
g56
(g57
g58
NtRp3585
(dp3586
g61
(dp3587
g69
I5
ssg70
g3581
sg63
(lp3588
g1592
asbasbasbag56
(g72
g58
NtRp3589
(dp3590
g61
(dp3591
sg70
g2333
sg63
(lp3592
g56
(g77
g58
NtRp3593
(dp3594
g61
(dp3595
g81
g82
ssg70
g3589
sg63
(lp3596
S'view'
p3597
asbag56
(g77
g58
NtRp3598
(dp3599
g61
(dp3600
g88
g89
ssg70
g3589
sg63
(lp3601
S':'
asbag56
(g77
g58
NtRp3602
(dp3603
g61
(dp3604
sg70
g3589
sg63
(lp3605
g56
(g57
g58
NtRp3606
(dp3607
g61
(dp3608
g69
I5
ssg70
g3602
sg63
(lp3609
S'default/user.html'
p3610
asbasbasbasbasbsS'locals'
p3611
(dp3612
S'Service'
p3613
S"<class 'gluon.tools.Service'>"
p3614
sS'OBJECT'
p3615
S"<class 'gluon.html.OBJECT'>"
p3616
sS'_file'
p3617
S"'/scec/static/css/jquery.tooltip.css'"
p3618
sS'SQLDB'
p3619
S"<class 'gluon.dal.DAL'>"
p3620
sg2315
S"<Storage {'_Session__hash': '\\xc8[\\xd5\\xc1#\\xd8e...login]': '411be57c-c253-462c-95f1-7e2ad27c74ec'}>"
p3621
sS'LINK'
p3622
S"<class 'gluon.html.LINK'>"
p3623
sS'BR'
p3624
S"<class 'gluon.html.BR'>"
p3625
sS'local_import'
p3626
S'<function <lambda>>'
p3627
sS'OPTGROUP'
p3628
S"<class 'gluon.html.OPTGROUP'>"
p3629
sS'PRE'
p3630
S"<class 'gluon.html.PRE'>"
p3631
sS'IS_INT_IN_RANGE'
p3632
S"<class 'gluon.validators.IS_INT_IN_RANGE'>"
p3633
sS'IS_LOWER'
p3634
S"<class 'gluon.validators.IS_LOWER'>"
p3635
sS'IS_STRONG'
p3636
S"<class 'gluon.validators.IS_STRONG'>"
p3637
sS'cache'
p3638
S'<gluon.cache.Cache object>'
p3639
sS'IS_IN_DB'
p3640
S"<class 'gluon.validators.IS_IN_DB'>"
p3641
sS'TAG'
p3642
S'<gluon.html.__TAG__ object>'
p3643
sS'_k'
p3644
S'7'
sS'SQLField'
p3645
S"<class 'gluon.dal.Field'>"
p3646
sS'mail'
p3647
S'<gluon.tools.Mail object>'
p3648
sS'BODY'
p3649
S"<class 'gluon.html.BODY'>"
p3650
sS'IS_DATE_IN_RANGE'
p3651
S"<class 'gluon.validators.IS_DATE_IN_RANGE'>"
p3652
sS'TH'
p3653
S"<class 'gluon.html.TH'>"
p3654
sS'URL'
p3655
S'<function URL>'
p3656
sS'__file__'
p3657
S"'/home/diazluis2007/web2py/applications/scec/views/default/user.html'"
p3658
sS'db'
p3659
S"<DAL {'auth_event': <Table {'origin': <gluon.dal..., 'id': <gluon.dal.Field object at 0x3339590>}>}>"
p3660
sS'auth'
p3661
S'<gluon.tools.Auth object>'
p3662
sS'P'
S"<class 'gluon.html.P'>"
p3663
sS'TFOOT'
p3664
S"<class 'gluon.html.TFOOT'>"
p3665
sS'id_user'
p3666
S'None'
p3667
sS'XHTML'
p3668
S"<class 'gluon.html.XHTML'>"
p3669
sS'ON'
p3670
g1234
sS'OL'
p3671
S"<class 'gluon.html.OL'>"
p3672
sS'TEXTAREA'
p3673
S"<class 'gluon.html.TEXTAREA'>"
p3674
sS'MENU'
p3675
S"<class 'gluon.html.MENU'>"
p3676
sS'_file0'
p3677
S"'/scec/static/css/jquery.tooltip.css'"
p3678
sS'IS_IMAGE'
p3679
S"<class 'gluon.validators.IS_IMAGE'>"
p3680
sS'LOAD'
p3681
S'<gluon.compileapp.LoadFactory object>'
p3682
sS'CODE'
p3683
S"<class 'gluon.html.CODE'>"
p3684
sS'HTTP'
p3685
S"<class 'gluon.http.HTTP'>"
p3686
sS'HR'
p3687
S"<class 'gluon.html.HR'>"
p3688
sS'IS_DATETIME'
p3689
S"<class 'gluon.validators.IS_DATETIME'>"
p3690
sS'HEAD'
p3691
S"<class 'gluon.html.HEAD'>"
p3692
sS'LABEL'
p3693
S"<class 'gluon.html.LABEL'>"
p3694
sS'META'
p3695
S"<class 'gluon.html.META'>"
p3696
sS'plugins'
p3697
S'<gluon.tools.PluginManager object>'
p3698
sS'SELECT'
p3699
S"<class 'gluon.html.SELECT'>"
p3700
sS'CENTER'
p3701
S"<class 'gluon.html.CENTER'>"
p3702
sS'prettydate'
p3703
S'<function prettydate>'
p3704
sS'Crud'
p3705
S"<class 'gluon.tools.Crud'>"
p3706
sS'Auth'
p3707
S"<class 'gluon.tools.Auth'>"
p3708
sS'IS_EQUAL_TO'
p3709
S"<class 'gluon.validators.IS_EQUAL_TO'>"
p3710
sS'IS_LIST_OF'
p3711
S"<class 'gluon.validators.IS_LIST_OF'>"
p3712
sS'SQLFORM'
p3713
S"<class 'gluon.sqlhtml.SQLFORM'>"
p3714
sS'_item'
p3715
S"'author'"
p3716
sS'EM'
p3717
S"<class 'gluon.html.EM'>"
p3718
sS'redirect'
p3719
S'<function redirect>'
p3720
sS'FIELDSET'
p3721
S"<class 'gluon.html.FIELDSET'>"
p3722
sS'__builtins__'
p3723
S"{'ArithmeticError': <type 'exceptions.ArithmeticError'>, 'AssertionError': <type 'exceptions.AssertionError'>, 'AttributeError': <type 'exceptions.AttributeError'>, 'BaseException': <type 'exceptions.BaseException'>, 'BufferError': <type 'exceptions.BufferError'>, 'BytesWarning': <type 'exceptions.BytesWarning'>, 'DeprecationWarning': <type 'exceptions.DeprecationWarning'>, 'EOFError': <type 'exceptions.EOFError'>, 'Ellipsis': Ellipsis, 'EnvironmentError': <type 'exceptions.EnvironmentError'>, ...}"
p3724
sS'embed64'
p3725
S'<function embed64>'
p3726
sS'INPUT'
p3727
S"<class 'gluon.html.INPUT'>"
p3728
sS'EMBED'
p3729
S"<class 'gluon.html.EMBED'>"
p3730
sS'H2'
p3731
S"<class 'gluon.html.H2'>"
p3732
sS'H3'
p3733
S"<class 'gluon.html.H3'>"
p3734
sS'BUTTON'
p3735
S"<class 'gluon.html.BUTTON'>"
p3736
sS'H1'
p3737
S"<class 'gluon.html.H1'>"
p3738
sS'H6'
p3739
S"<class 'gluon.html.H6'>"
p3740
sS'H4'
p3741
S"<class 'gluon.html.H4'>"
p3742
sS'H5'
p3743
S"<class 'gluon.html.H5'>"
p3744
sS'UL'
p3745
S"<class 'gluon.html.UL'>"
p3746
sS'IS_UPPER'
p3747
S"<class 'gluon.validators.IS_UPPER'>"
p3748
sS'xmlescape'
p3749
S'<function xmlescape>'
p3750
sS'IS_TIME'
p3751
S"<class 'gluon.validators.IS_TIME'>"
p3752
sS'OPTION'
p3753
S"<class 'gluon.html.OPTION'>"
p3754
sS'TITLE'
p3755
S"<class 'gluon.html.TITLE'>"
p3756
sS'CRYPT'
p3757
S"<class 'gluon.validators.CRYPT'>"
p3758
sS'IS_EMPTY_OR'
p3759
S"<class 'gluon.validators.IS_EMPTY_OR'>"
p3760
sS'MARKMIN'
p3761
S"<class 'gluon.html.MARKMIN'>"
p3762
sS'_estado_civil'
p3763
S"{'b': 'Concubinato', 'c': 'Casado', 'd': 'Divorciado', 's': 'Soltero', 'v': 'Viudo'}"
p3764
sS'_raza'
p3765
S"{'1': 'Cauc\\xc3\\xa1sico', '2': 'Afroamericano', '3': 'Asi\\xc3\\xa1tico'}"
p3766
sS'service'
p3767
S'<gluon.tools.Service object>'
p3768
sS'SCRIPT'
p3769
S"<class 'gluon.html.SCRIPT'>"
p3770
sS'TABLE'
p3771
S"<class 'gluon.html.TABLE'>"
p3772
sS'IS_IPV4'
p3773
S"<class 'gluon.validators.IS_IPV4'>"
p3774
sS'IS_LENGTH'
p3775
S"<class 'gluon.validators.IS_LENGTH'>"
p3776
sS'XML'
p3777
S"<class 'gluon.html.XML'>"
p3778
sS'B'
S"<class 'gluon.html.B'>"
p3779
sS'IMG'
p3780
S"<class 'gluon.html.IMG'>"
p3781
sS'SQLTABLE'
p3782
S"<class 'gluon.sqlhtml.SQLTABLE'>"
p3783
sS'IS_MATCH'
p3784
S"<class 'gluon.validators.IS_MATCH'>"
p3785
sS'IS_ALPHANUMERIC'
p3786
S"<class 'gluon.validators.IS_ALPHANUMERIC'>"
p3787
sS'SPAN'
p3788
S"<class 'gluon.html.SPAN'>"
p3789
sS'IS_SLUG'
p3790
S"<class 'gluon.validators.IS_SLUG'>"
p3791
sS'CLEANUP'
p3792
S"<class 'gluon.validators.CLEANUP'>"
p3793
sS'_perfil_se'
p3794
S"('Dato Socio Economico', False, '/scec/default/index', [])"
p3795
sS'IS_DATE'
p3796
S"<class 'gluon.validators.IS_DATE'>"
p3797
sS'IS_EMAIL'
p3798
S"<class 'gluon.validators.IS_EMAIL'>"
p3799
sS'IS_NOT_EMPTY'
p3800
S"<class 'gluon.validators.IS_NOT_EMPTY'>"
p3801
sg55
S"<Storage {'body': <cStringIO.StringO object at 0..._vars': <Storage {}>, 'post_vars': <Storage {}>}>"
p3802
sS'BEAUTIFY'
p3803
S"<class 'gluon.html.BEAUTIFY'>"
p3804
sS'TBODY'
p3805
S"<class 'gluon.html.TBODY'>"
p3806
sS'Field'
p3807
S"<class 'gluon.dal.Field'>"
p3808
sS'_perfil_dato_basico'
p3809
S"('Datos Basicos', False, '/scec/default/index', [])"
p3810
sS'Mail'
p3811
S"<class 'gluon.tools.Mail'>"
p3812
sS'DIV'
p3813
S"<class 'gluon.html.DIV'>"
p3814
sS'LEGEND'
p3815
S"<class 'gluon.html.LEGEND'>"
p3816
sS'form'
p3817
S'<gluon.sqlhtml.SQLFORM object>'
p3818
sS'DAL'
p3819
S"<class 'gluon.dal.DAL'>"
p3820
sS'TT'
p3821
S"<class 'gluon.html.TT'>"
p3822
sS'TR'
p3823
S"<class 'gluon.html.TR'>"
p3824
sS'LI'
p3825
S"<class 'gluon.html.LI'>"
p3826
sS'IFRAME'
p3827
S"<class 'gluon.html.IFRAME'>"
p3828
sS'TD'
p3829
S"<class 'gluon.html.TD'>"
p3830
sS'PluginManager'
p3831
S"<class 'gluon.tools.PluginManager'>"
p3832
sS'IS_URL'
p3833
S"<class 'gluon.validators.IS_URL'>"
p3834
sS'A'
S"<class 'gluon.html.A'>"
p3835
sS'STYLE'
p3836
S"<class 'gluon.html.STYLE'>"
p3837
sS'IS_DATETIME_IN_RANGE'
p3838
S"<class 'gluon.validators.IS_DATETIME_IN_RANGE'>"
p3839
sS'HTML'
p3840
S"<class 'gluon.html.HTML'>"
p3841
sS'FORM'
p3842
S"<class 'gluon.html.FORM'>"
p3843
sS'I'
S"<class 'gluon.html.I'>"
p3844
sS'crud'
p3845
S'<gluon.tools.Crud object>'
p3846
sS'_grupo_sang'
p3847
S"{'1': 'O+', '2': 'A+', '3': 'B+', '4': 'AB+', '5': 'O-', '6': 'A-', '7': 'B-', '8': 'AB-'}"
p3848
sS'IS_NOT_IN_DB'
p3849
S"<class 'gluon.validators.IS_NOT_IN_DB'>"
p3850
sg2328
S"<Storage {'status': 200, 'body': <cStringIO.Stri...uery.tooltip.css'], 'view': 'default/user.html'}>"
p3851
sS'THEAD'
p3852
S"<class 'gluon.html.THEAD'>"
p3853
sS'IS_NULL_OR'
p3854
S"<class 'gluon.validators.IS_EMPTY_OR'>"
p3855
sS'IS_FLOAT_IN_RANGE'
p3856
S"<class 'gluon.validators.IS_FLOAT_IN_RANGE'>"
p3857
sS'IS_EXPR'
p3858
S"<class 'gluon.validators.IS_EXPR'>"
p3859
sS'T'
S'<gluon.languages.translator object>'
p3860
sS'IS_IN_SET'
p3861
S"<class 'gluon.validators.IS_IN_SET'>"
p3862
sS'_sexo'
p3863
S"{'f': 'Femenino', 'm': 'Masculino'}"
p3864
sS'IS_UPLOAD_FILENAME'
p3865
S"<class 'gluon.validators.IS_UPLOAD_FILENAME'>"
p3866
sS'IS_DECIMAL_IN_RANGE'
p3867
S"<class 'gluon.validators.IS_DECIMAL_IN_RANGE'>"
p3868
sssS'traceback'
p3869
S'Traceback (most recent call last):\n  File "/home/diazluis2007/web2py/gluon/restricted.py", line 192, in restricted\n    exec ccode in environment\n  File "/home/diazluis2007/web2py/applications/scec/views/default/user.html", line 83, in <module>\nNameError: name \'form_perfil\' is not defined\n'
p3870
s.